(lp0
(lp1
(lp2
F39.62771736286092
aF263.2870656646579
aF91.82865126727357
aa(lp3
F11.045598609649533
aF233.0180451476503
aF53.60014094864438
aa(lp4
F1.4614593323769742
aF-223.67588421483535
aF-13.542910388939664
aa(lp5
F-5.368745129316043
aF-210.6538172207725
aF-9.488509420252173
aa(lp6
F-141.26785323221281
aF11.740271864233256
aF27.432181747576564
aa(lp7
F-164.6860361386726
aF15.997999985301714
aF14.561533915145791
aa(lp8
F185.51399981222525
aF7.676388386427123
aF-6.595553692077023
aa(lp9
F155.31778663083955
aF-19.078722687510577
aF-13.26740418857243
aa(lp10
F276.6380976275771
aF304.71442673380164
aF33.140200391191975
aa(lp11
F325.6861117815461
aF194.99446642029415
aF-73.78703890644742
aa(lp12
F288.3275572794282
aF224.76114351866084
aF-57.386039663266715
aa(lp13
F339.08367716822835
aF250.61715844961992
aF-59.2430686841954
aa(lp14
F321.19319672964224
aF195.86653149282802
aF-82.15414626803238
aa(lp15
F-183.53832789031222
aF205.18012202347546
aF-85.42309285455826
aa(lp16
F-192.1106389366287
aF214.35661554343596
aF-46.816979844579635
aa(lp17
F-200.71403017350653
aF196.86503268527684
aF-23.88838188159737
aaa(lp18
I0
aI0
aI1
aI1
aI2
aI2
aI3
aI3
aI4
aI4
aI4
aI4
aI4
aI5
aI5
aI5
aa(dp19
S'up\n'
p20
I0
sS'north-west\n'
p21
I5
sS'north-east\n'
p22
I4
sS'down\n'
p23
I1
sS'left\n'
p24
I2
sS'right\n'
p25
I3
sa.