(lp0
(lp1
(lp2
F52.39395218557197
aF336.81193662799075
aF-138.07493102022988
aF-11.39551734629908
aF-15.580615689458742
aF31.435113729379843
aa(lp3
F0.0
aF0.0
aF0.0
aF0.0
aF0.0
aF0.0
aaa(lp4
F1.0
aF1.0
aa.