(lp0
(lp1
(lp2
F0.0
aF0.0
aF0.0
aF0.0
aF0.0
aF0.0
aa(lp3
F0.0
aF0.0
aF0.0
aF0.0
aF0.0
aF0.0
aa(lp4
F0.0
aF0.0
aF0.0
aF0.0
aF0.0
aF0.0
aa(lp5
F0.0
aF0.0
aF0.0
aF0.0
aF0.0
aF0.0
aa(lp6
F0.0
aF0.0
aF0.0
aF0.0
aF0.0
aF0.0
aa(lp7
F-23.577414901343154
aF313.80037463292723
aF11.296917915128992
aF20.65367206981637
aF-467.8108054624645
aF90.38386811348002
aaa(lp8
I7696394
aI7696394
aI7696394
aI431366827530
aI431366827530
aI431366827530
aa.