(lp0
(lp1
(lp2
F-11.633378558458753
aF92.2358106740806
aF3.907099847899346
aF-146.74864870013326
aF-26.259772634966055
aF-151.0047312817421
aa(lp3
F-8.786006297921077
aF151.96156423594962
aF3.286078012360908
aF-9.351227035062223
aF352.7059203442771
aF3.9462577303414084
aa(lp4
F-21.013937585640953
aF177.03239454109905
aF11.461591309785867
aF-42.425212861109536
aF-596.0428890492472
aF-55.01618576687684
aa(lp5
F-22.679369438348477
aF178.24453797064837
aF9.483764627422609
aF0.8737000438003288
aF-528.2224725765208
aF-24.87460489524377
aaa(lp6
I7696394
aI7696394
aI431366827530
aI431366827530
aa.