(lp0
(lp1
(lp2
F-291.76008461463357
aF32.7468961577818
aF46.380322813983874
aF6521.047238765333
aF98.16343160157479
aF144.14495070185345
aF1.0
aF1.0
aF1.0
aF1.0
aF1.0
aF1.0
aF1.0
aF1.0
aF1.0
aF1.0
aI0
aI0
aI0
aI0
aI0
aI3
aI10
aI0
aI0
aI2
aI55
aI2
aI0
aI0
aI0
aI1
aI0
aI0
aI0
aI0
aI0
aI0
aI0
aI3
aI0
aI0
aI0
aI1
aI0
aI0
aI0
aI2
aI0
aI0
aI0
aI1
aI0
aI0
aI0
aI0
aI0
aI0
aI0
aI4
aI0
aI0
aI0
aI1
aI0
aI0
aI0
aI0
aI0
aI0
aI0
aI0
aI0
aI0
aI0
aI0
aI0
aI0
aI0
aI0
aI0
aI0
aI0
aI0
aI1
aI0
aI0
aI0
aI0
aI0
aI0
aI0
aI0
aI0
aI0
aI0
aI1
aI1
aI0
aI0
aI2
aI0
aI0
aI0
aI0
aI0
aI0
aI0
aI1
aI0
aI0
aI0
aI1
aI1
aI0
aI1
aI0
aI0
aI0
aI1
aI2
aI0
aI0
aI0
aI1
aI1
aI0
aI0
aI0
aI0
aI1
aI0
aI4
aI44
aI18
aI0
aI1
aI1
aI2
aI0
aI0
aI0
aI0
aI0
aI0
aI0
aI0
aI0
aI0
aI0
aI0
aI0
aI0
aI0
aI0
aI0
aI0
aI0
aI0
aI0
aI0
aI0
aI0
aI10
aI0
aI0
aI0
aI0
aI0
aI0
aI0
aI0
aI0
aI0
aI0
aI0
aI0
aI0
aI5
aI70
aI0
aI0
aI0
aI0
aI0
aI0
aI0
aI0
aI0
aI0
aI0
aI0
aI0
aI0
aI0
aI0
aI0
aI0
aI0
aI0
aI0
aI0
aI0
aI0
aI0
aI0
aI0
aI0
aI0
aI0
aI0
aI0
aI0
aI0
aI0
aI0
aI0
aI0
aI0
aI0
aI0
aI0
aI0
aI0
aI0
aI0
aI0
aI0
aI0
aI0
aI0
aI0
aI38
aI0
aI0
aI0
aI0
aI0
aI0
aI0
aI0
aI0
aI0
aI0
aI39
aI0
aI0
aI0
aI8
aI0
aI0
aI0
aI0
aI0
aI0
aI0
aI0
aI0
aI0
aI0
aI0
aI0
aI0
aI0
aI0
aI0
aI0
aI0
aI0
aI0
aI0
aI0
aI0
aI0
aI0
aI0
aI0
aI0
aI0
aI0
aI0
aI0
aI0
aI0
aI0
aI0
aI0
aI0
aI0
aI0
aI0
aI0
aI0
aI0
aI0
aI0
aI37
aI0
aI0
aI0
aI0
aI0
aI0
aI0
aI0
aI0
aI0
aI0
aI43
aI0
aI0
aI0
aI5
aI0
aI0
aI0
aI0
aI0
aI0
aI0
aI0
aI0
aI0
aI0
aI0
aI0
aI0
aI0
aI0
aI0
aI0
aI0
aI0
aI0
aI0
aI0
aa(lp3
F-340.5136689551168
aF12.828133685098388
aF93.79350900719227
aF8586.885835955982
aF20.313605921180116
aF679.998224268211
aF1.0
aF1.0
aF1.0
aF1.0
aF1.0
aF1.0
aF1.0
aF1.0
aF1.0
aF1.0
aI0
aI1
aI2
aI0
aI0
aI3
aI25
aI1
aI0
aI3
aI44
aI0
aI0
aI0
aI0
aI0
aI0
aI0
aI0
aI0
aI0
aI0
aI0
aI0
aI0
aI0
aI0
aI0
aI0
aI0
aI0
aI0
aI0
aI0
aI0
aI0
aI0
aI0
aI0
aI0
aI0
aI0
aI0
aI0
aI0
aI0
aI0
aI0
aI0
aI0
aI0
aI0
aI0
aI0
aI0
aI0
aI0
aI0
aI0
aI0
aI0
aI0
aI0
aI0
aI0
aI0
aI0
aI0
aI0
aI0
aI0
aI0
aI0
aI0
aI0
aI0
aI0
aI0
aI0
aI0
aI0
aI0
aI0
aI0
aI0
aI0
aI0
aI0
aI2
aI0
aI0
aI0
aI3
aI0
aI0
aI0
aI0
aI0
aI0
aI2
aI0
aI0
aI0
aI1
aI0
aI0
aI0
aI1
aI3
aI0
aI0
aI0
aI0
aI0
aI1
aI1
aI1
aI47
aI5
aI0
aI4
aI3
aI3
aI0
aI1
aI0
aI1
aI0
aI0
aI0
aI0
aI0
aI0
aI0
aI0
aI0
aI0
aI0
aI0
aI0
aI0
aI0
aI0
aI0
aI0
aI0
aI0
aI0
aI0
aI0
aI0
aI0
aI0
aI0
aI0
aI0
aI0
aI0
aI0
aI0
aI0
aI0
aI0
aI79
aI0
aI0
aI0
aI0
aI0
aI0
aI0
aI0
aI0
aI0
aI0
aI0
aI0
aI0
aI0
aI0
aI0
aI0
aI0
aI0
aI0
aI0
aI0
aI0
aI0
aI0
aI0
aI0
aI0
aI0
aI0
aI0
aI0
aI0
aI0
aI0
aI0
aI0
aI0
aI0
aI0
aI0
aI0
aI0
aI0
aI0
aI0
aI0
aI0
aI0
aI0
aI0
aI40
aI0
aI0
aI0
aI0
aI0
aI0
aI0
aI0
aI0
aI0
aI0
aI33
aI0
aI0
aI0
aI6
aI0
aI0
aI0
aI0
aI0
aI0
aI0
aI0
aI0
aI0
aI0
aI0
aI0
aI0
aI0
aI0
aI0
aI0
aI0
aI0
aI0
aI0
aI0
aI0
aI0
aI0
aI0
aI0
aI0
aI0
aI0
aI0
aI0
aI0
aI0
aI0
aI0
aI0
aI0
aI0
aI0
aI0
aI0
aI2
aI0
aI0
aI0
aI36
aI0
aI0
aI0
aI0
aI0
aI0
aI0
aI0
aI0
aI0
aI0
aI41
aI0
aI0
aI0
aI0
aI0
aI0
aI0
aI0
aI0
aI0
aI0
aI0
aI0
aI0
aI0
aI0
aI0
aI0
aI0
aI0
aI0
aI0
aI0
aI0
aI0
aI0
aI0
aa(lp4
F-372.79635518466034
aF22.612948926559984
aF77.25509261280865
aF7307.565224814586
aF43.595173980115916
aF356.3301709467055
aF1.0
aF1.0
aF1.0
aF1.0
aF1.0
aF1.0
aF1.0
aF1.0
aF1.0
aF1.0
aI0
aI0
aI0
aI0
aI0
aI6
aI21
aI0
aI0
aI1
aI43
aI0
aI0
aI0
aI0
aI0
aI0
aI0
aI0
aI0
aI0
aI0
aI0
aI0
aI0
aI0
aI0
aI0
aI0
aI0
aI0
aI0
aI0
aI0
aI0
aI0
aI0
aI0
aI0
aI0
aI0
aI0
aI0
aI0
aI0
aI0
aI0
aI0
aI0
aI0
aI0
aI0
aI0
aI0
aI0
aI0
aI0
aI0
aI0
aI0
aI0
aI0
aI0
aI0
aI0
aI0
aI0
aI0
aI0
aI0
aI0
aI0
aI0
aI0
aI0
aI0
aI0
aI0
aI0
aI0
aI0
aI0
aI0
aI0
aI0
aI0
aI0
aI0
aI0
aI0
aI0
aI0
aI0
aI0
aI0
aI0
aI0
aI0
aI0
aI1
aI0
aI0
aI0
aI1
aI0
aI0
aI0
aI0
aI1
aI0
aI0
aI0
aI0
aI0
aI0
aI0
aI0
aI43
aI10
aI1
aI2
aI5
aI6
aI0
aI1
aI0
aI0
aI0
aI0
aI0
aI0
aI0
aI0
aI0
aI0
aI0
aI0
aI0
aI0
aI0
aI0
aI0
aI0
aI0
aI0
aI0
aI0
aI0
aI0
aI0
aI0
aI0
aI0
aI0
aI0
aI0
aI0
aI0
aI0
aI0
aI0
aI0
aI8
aI63
aI0
aI0
aI0
aI0
aI0
aI0
aI0
aI0
aI0
aI0
aI0
aI0
aI0
aI0
aI0
aI0
aI0
aI0
aI0
aI0
aI0
aI0
aI0
aI0
aI0
aI0
aI0
aI0
aI0
aI0
aI0
aI0
aI0
aI0
aI0
aI0
aI0
aI0
aI0
aI0
aI0
aI0
aI0
aI0
aI0
aI0
aI0
aI0
aI0
aI0
aI0
aI0
aI35
aI0
aI0
aI0
aI0
aI0
aI0
aI0
aI0
aI0
aI0
aI0
aI30
aI0
aI0
aI0
aI6
aI0
aI0
aI0
aI0
aI0
aI0
aI0
aI0
aI0
aI0
aI0
aI0
aI0
aI0
aI0
aI0
aI0
aI0
aI0
aI0
aI0
aI0
aI0
aI0
aI0
aI0
aI0
aI0
aI0
aI0
aI0
aI0
aI0
aI0
aI0
aI0
aI0
aI0
aI0
aI0
aI0
aI0
aI0
aI0
aI0
aI0
aI0
aI34
aI0
aI0
aI0
aI0
aI0
aI0
aI0
aI0
aI0
aI0
aI0
aI36
aI0
aI0
aI0
aI1
aI0
aI0
aI0
aI0
aI0
aI0
aI0
aI0
aI0
aI0
aI0
aI0
aI0
aI0
aI0
aI0
aI0
aI0
aI0
aI0
aI0
aI0
aI0
aa(lp5
F-308.0040503969491
aF25.71516455987733
aF60.21785391540003
aF6751.43856813968
aF46.93311772196038
aF273.38213348293186
aF1.0
aF1.0
aF1.0
aF1.0
aF1.0
aF1.0
aF1.0
aF1.0
aF1.0
aF1.0
aI0
aI0
aI0
aI0
aI0
aI1
aI14
aI0
aI0
aI2
aI63
aI0
aI0
aI0
aI0
aI0
aI0
aI0
aI0
aI0
aI0
aI0
aI0
aI0
aI0
aI0
aI0
aI0
aI0
aI0
aI0
aI0
aI0
aI0
aI0
aI0
aI0
aI0
aI0
aI0
aI0
aI0
aI0
aI0
aI0
aI0
aI0
aI0
aI0
aI0
aI0
aI0
aI0
aI0
aI0
aI0
aI0
aI0
aI0
aI0
aI0
aI0
aI0
aI0
aI0
aI0
aI0
aI0
aI0
aI0
aI0
aI0
aI0
aI0
aI0
aI0
aI0
aI0
aI0
aI0
aI0
aI0
aI0
aI0
aI0
aI0
aI0
aI0
aI0
aI0
aI0
aI0
aI0
aI0
aI0
aI0
aI0
aI0
aI0
aI0
aI0
aI0
aI0
aI0
aI1
aI0
aI0
aI0
aI0
aI0
aI0
aI0
aI0
aI0
aI2
aI0
aI0
aI40
aI25
aI0
aI2
aI8
aI2
aI0
aI0
aI0
aI0
aI0
aI0
aI0
aI0
aI0
aI0
aI0
aI0
aI0
aI0
aI0
aI0
aI0
aI0
aI0
aI0
aI0
aI0
aI0
aI0
aI0
aI0
aI0
aI0
aI0
aI0
aI0
aI0
aI0
aI0
aI0
aI0
aI0
aI0
aI0
aI0
aI80
aI0
aI0
aI0
aI0
aI0
aI0
aI0
aI0
aI0
aI0
aI0
aI0
aI0
aI0
aI0
aI0
aI0
aI0
aI0
aI0
aI0
aI0
aI0
aI0
aI0
aI0
aI0
aI0
aI0
aI0
aI0
aI0
aI0
aI0
aI0
aI0
aI0
aI0
aI0
aI0
aI0
aI0
aI0
aI0
aI0
aI0
aI0
aI0
aI0
aI0
aI0
aI0
aI37
aI0
aI0
aI0
aI0
aI0
aI0
aI0
aI0
aI0
aI0
aI0
aI41
aI0
aI0
aI0
aI2
aI0
aI0
aI0
aI0
aI0
aI0
aI0
aI0
aI0
aI0
aI0
aI0
aI0
aI0
aI0
aI0
aI0
aI0
aI0
aI0
aI0
aI0
aI0
aI0
aI0
aI0
aI0
aI0
aI0
aI0
aI0
aI0
aI0
aI0
aI0
aI0
aI0
aI0
aI0
aI0
aI0
aI0
aI0
aI0
aI0
aI0
aI0
aI36
aI0
aI0
aI0
aI0
aI0
aI0
aI0
aI0
aI0
aI0
aI0
aI44
aI0
aI0
aI0
aI0
aI0
aI0
aI0
aI0
aI0
aI0
aI0
aI0
aI0
aI0
aI0
aI0
aI0
aI0
aI0
aI0
aI0
aI0
aI0
aI0
aI0
aI0
aI0
aa(lp6
F-317.34718007703526
aF14.800901682252206
aF73.35227980535397
aF6154.900812434938
aF21.067819460210508
aF347.26340943550616
aF1.0
aF1.0
aF1.0
aF1.0
aF1.0
aF1.0
aF1.0
aF1.0
aF1.0
aF1.0
aI0
aI0
aI1
aI0
aI1
aI3
aI18
aI1
aI0
aI2
aI44
aI1
aI0
aI0
aI0
aI0
aI0
aI0
aI2
aI0
aI0
aI0
aI0
aI0
aI0
aI0
aI0
aI0
aI1
aI1
aI0
aI0
aI0
aI0
aI0
aI0
aI0
aI0
aI0
aI0
aI0
aI0
aI0
aI0
aI0
aI0
aI0
aI0
aI0
aI0
aI0
aI0
aI0
aI0
aI0
aI0
aI0
aI0
aI0
aI0
aI0
aI0
aI0
aI0
aI0
aI1
aI0
aI0
aI0
aI0
aI0
aI0
aI0
aI0
aI0
aI0
aI0
aI0
aI0
aI0
aI0
aI0
aI1
aI1
aI0
aI0
aI0
aI0
aI0
aI0
aI0
aI0
aI4
aI0
aI0
aI0
aI0
aI1
aI1
aI3
aI0
aI0
aI0
aI0
aI0
aI0
aI0
aI0
aI4
aI1
aI0
aI0
aI0
aI0
aI0
aI1
aI0
aI39
aI6
aI1
aI2
aI6
aI2
aI0
aI0
aI1
aI0
aI0
aI0
aI0
aI0
aI0
aI0
aI0
aI0
aI0
aI0
aI0
aI0
aI0
aI0
aI0
aI0
aI0
aI0
aI0
aI0
aI0
aI0
aI0
aI0
aI0
aI0
aI0
aI0
aI0
aI0
aI0
aI0
aI0
aI0
aI0
aI0
aI75
aI0
aI0
aI0
aI0
aI0
aI0
aI0
aI0
aI0
aI0
aI0
aI0
aI0
aI0
aI0
aI0
aI0
aI0
aI0
aI0
aI0
aI0
aI0
aI0
aI0
aI0
aI0
aI0
aI0
aI0
aI0
aI0
aI0
aI0
aI0
aI0
aI0
aI0
aI0
aI0
aI0
aI0
aI0
aI0
aI0
aI0
aI0
aI0
aI0
aI0
aI0
aI0
aI32
aI0
aI0
aI0
aI0
aI0
aI0
aI0
aI0
aI0
aI0
aI0
aI18
aI0
aI0
aI0
aI4
aI0
aI0
aI0
aI0
aI0
aI0
aI0
aI0
aI0
aI0
aI0
aI21
aI0
aI0
aI0
aI0
aI0
aI0
aI0
aI0
aI0
aI0
aI0
aI0
aI0
aI0
aI0
aI0
aI0
aI0
aI0
aI0
aI0
aI0
aI0
aI0
aI0
aI0
aI0
aI0
aI0
aI0
aI0
aI0
aI0
aI0
aI0
aI31
aI0
aI0
aI0
aI0
aI0
aI0
aI0
aI0
aI0
aI0
aI0
aI44
aI0
aI0
aI0
aI0
aI0
aI0
aI0
aI0
aI0
aI0
aI0
aI0
aI0
aI0
aI0
aI0
aI0
aI0
aI0
aI0
aI0
aI0
aI0
aI0
aI0
aI0
aI0
aa(lp7
F354.6261657567851
aF-20.55932179088071
aF-82.84656855758594
aF9340.944478752437
aF29.773072838197358
aF493.20798953221464
aF1.0
aF1.0
aF1.0
aF1.0
aF1.0
aF1.0
aF1.0
aF1.0
aF1.0
aF1.0
aI2
aI0
aI1
aI0
aI0
aI0
aI1
aI0
aI0
aI0
aI0
aI0
aI0
aI0
aI0
aI0
aI5
aI1
aI0
aI0
aI0
aI0
aI0
aI0
aI0
aI0
aI0
aI0
aI0
aI0
aI0
aI0
aI3
aI0
aI0
aI0
aI0
aI0
aI0
aI0
aI0
aI0
aI0
aI0
aI0
aI0
aI0
aI0
aI1
aI0
aI0
aI0
aI7
aI36
aI0
aI0
aI0
aI13
aI3
aI0
aI0
aI0
aI0
aI0
aI0
aI0
aI1
aI0
aI0
aI1
aI13
aI4
aI0
aI1
aI6
aI0
aI0
aI0
aI0
aI0
aI0
aI0
aI0
aI0
aI0
aI0
aI0
aI0
aI0
aI0
aI0
aI0
aI0
aI0
aI0
aI0
aI0
aI0
aI0
aI0
aI0
aI0
aI0
aI0
aI0
aI0
aI0
aI0
aI1
aI0
aI0
aI0
aI0
aI0
aI0
aI0
aI0
aI0
aI0
aI0
aI0
aI0
aI0
aI0
aI0
aI0
aI0
aI0
aI0
aI0
aI0
aI0
aI0
aI0
aI0
aI0
aI0
aI0
aI0
aI0
aI0
aI0
aI0
aI0
aI0
aI0
aI0
aI12
aI0
aI0
aI0
aI4
aI0
aI0
aI0
aI0
aI0
aI0
aI0
aI0
aI0
aI0
aI0
aI11
aI0
aI0
aI0
aI0
aI0
aI0
aI0
aI0
aI0
aI0
aI0
aI0
aI0
aI0
aI0
aI0
aI0
aI0
aI0
aI0
aI0
aI0
aI0
aI0
aI0
aI0
aI0
aI0
aI0
aI0
aI0
aI0
aI0
aI0
aI0
aI0
aI0
aI0
aI0
aI0
aI0
aI0
aI0
aI0
aI0
aI0
aI0
aI0
aI0
aI0
aI0
aI0
aI40
aI0
aI0
aI0
aI0
aI0
aI0
aI0
aI0
aI0
aI0
aI0
aI11
aI0
aI0
aI0
aI2
aI0
aI0
aI0
aI0
aI0
aI0
aI0
aI0
aI0
aI0
aI0
aI17
aI3
aI0
aI0
aI0
aI0
aI0
aI0
aI0
aI0
aI0
aI0
aI0
aI0
aI0
aI0
aI0
aI0
aI0
aI0
aI0
aI0
aI0
aI0
aI0
aI0
aI0
aI0
aI0
aI0
aI0
aI0
aI12
aI0
aI0
aI0
aI0
aI0
aI0
aI0
aI0
aI0
aI0
aI0
aI0
aI0
aI0
aI0
aI4
aI0
aI0
aI0
aI11
aI0
aI0
aI0
aI0
aI0
aI0
aI0
aI0
aI0
aI0
aI0
aI0
aI0
aI0
aI0
aI0
aI0
aI0
aI0
aI0
aI0
aI0
aI0
aa(lp8
F319.1392007964647
aF-20.016411590764474
aF-71.33554128445618
aF7647.200911791889
aF35.3381161841407
aF362.6286987383531
aF1.0
aF1.0
aF1.0
aF1.0
aF1.0
aF1.0
aF1.0
aF1.0
aF1.0
aF1.0
aI0
aI0
aI0
aI0
aI0
aI1
aI0
aI0
aI0
aI2
aI1
aI0
aI1
aI0
aI0
aI0
aI0
aI0
aI0
aI0
aI0
aI0
aI0
aI0
aI0
aI0
aI0
aI0
aI0
aI0
aI0
aI0
aI0
aI0
aI0
aI0
aI1
aI0
aI0
aI0
aI0
aI0
aI0
aI0
aI0
aI0
aI0
aI0
aI0
aI0
aI0
aI0
aI13
aI45
aI0
aI0
aI1
aI8
aI7
aI0
aI0
aI0
aI0
aI0
aI0
aI0
aI1
aI2
aI0
aI1
aI7
aI10
aI1
aI2
aI36
aI12
aI0
aI0
aI2
aI0
aI0
aI0
aI0
aI2
aI0
aI0
aI0
aI0
aI0
aI0
aI0
aI0
aI4
aI0
aI0
aI0
aI0
aI0
aI0
aI0
aI0
aI0
aI0
aI0
aI0
aI0
aI0
aI0
aI0
aI0
aI0
aI0
aI0
aI0
aI0
aI0
aI0
aI0
aI0
aI0
aI0
aI0
aI0
aI0
aI0
aI0
aI0
aI0
aI0
aI0
aI0
aI0
aI0
aI0
aI0
aI0
aI0
aI0
aI0
aI0
aI0
aI0
aI0
aI0
aI0
aI0
aI0
aI15
aI0
aI0
aI0
aI1
aI0
aI0
aI0
aI0
aI0
aI0
aI0
aI0
aI0
aI0
aI0
aI62
aI0
aI0
aI0
aI2
aI0
aI0
aI0
aI0
aI0
aI0
aI0
aI0
aI0
aI0
aI0
aI0
aI0
aI0
aI0
aI0
aI0
aI0
aI0
aI0
aI0
aI0
aI0
aI0
aI0
aI0
aI0
aI0
aI0
aI0
aI0
aI0
aI0
aI0
aI0
aI0
aI0
aI0
aI0
aI0
aI0
aI0
aI0
aI0
aI1
aI0
aI0
aI0
aI41
aI0
aI0
aI0
aI0
aI0
aI0
aI0
aI0
aI0
aI0
aI0
aI5
aI0
aI0
aI0
aI0
aI0
aI0
aI0
aI0
aI0
aI0
aI0
aI0
aI0
aI0
aI0
aI1
aI2
aI2
aI28
aI0
aI0
aI0
aI0
aI0
aI0
aI0
aI0
aI0
aI0
aI0
aI0
aI0
aI0
aI0
aI0
aI0
aI0
aI0
aI0
aI0
aI0
aI0
aI0
aI0
aI0
aI0
aI0
aI7
aI0
aI0
aI0
aI36
aI0
aI0
aI0
aI0
aI0
aI0
aI0
aI0
aI0
aI0
aI0
aI31
aI0
aI0
aI0
aI6
aI0
aI0
aI0
aI0
aI0
aI0
aI0
aI0
aI0
aI0
aI0
aI0
aI0
aI0
aI0
aI0
aI0
aI0
aI0
aI0
aI0
aI0
aI0
aa(lp9
F384.2202876442711
aF-24.02347299885087
aF-88.64743450250975
aF9771.891006857291
aF45.62034331884117
aF557.3718538143506
aF1.0
aF1.0
aF1.0
aF1.0
aF1.0
aF1.0
aF1.0
aF1.0
aF1.0
aF1.0
aI0
aI0
aI0
aI0
aI0
aI0
aI0
aI0
aI0
aI0
aI0
aI0
aI0
aI0
aI0
aI0
aI0
aI0
aI0
aI0
aI0
aI0
aI0
aI0
aI0
aI0
aI0
aI0
aI0
aI0
aI0
aI0
aI5
aI0
aI0
aI0
aI4
aI0
aI0
aI0
aI2
aI0
aI0
aI0
aI0
aI0
aI1
aI1
aI0
aI1
aI0
aI0
aI5
aI46
aI0
aI0
aI0
aI9
aI4
aI0
aI0
aI0
aI0
aI0
aI0
aI0
aI1
aI1
aI0
aI0
aI4
aI9
aI0
aI2
aI38
aI3
aI0
aI1
aI1
aI2
aI0
aI0
aI0
aI0
aI0
aI0
aI0
aI0
aI0
aI0
aI0
aI1
aI4
aI0
aI3
aI3
aI2
aI0
aI0
aI0
aI1
aI0
aI0
aI1
aI0
aI0
aI0
aI0
aI0
aI0
aI0
aI0
aI0
aI0
aI0
aI0
aI0
aI0
aI1
aI0
aI0
aI0
aI0
aI0
aI0
aI0
aI0
aI0
aI0
aI0
aI0
aI0
aI0
aI0
aI0
aI0
aI0
aI0
aI0
aI0
aI0
aI0
aI0
aI0
aI0
aI0
aI0
aI9
aI0
aI0
aI0
aI0
aI0
aI0
aI0
aI0
aI0
aI0
aI0
aI0
aI0
aI0
aI0
aI66
aI0
aI0
aI0
aI3
aI0
aI0
aI0
aI0
aI0
aI0
aI0
aI0
aI0
aI0
aI0
aI0
aI0
aI0
aI0
aI0
aI0
aI0
aI0
aI0
aI0
aI0
aI0
aI0
aI0
aI0
aI0
aI0
aI0
aI0
aI0
aI0
aI0
aI0
aI0
aI0
aI0
aI0
aI0
aI0
aI0
aI0
aI0
aI0
aI0
aI0
aI0
aI0
aI42
aI0
aI0
aI0
aI0
aI0
aI0
aI0
aI0
aI0
aI0
aI0
aI9
aI0
aI0
aI0
aI0
aI0
aI0
aI0
aI0
aI0
aI0
aI0
aI0
aI0
aI0
aI0
aI4
aI4
aI19
aI0
aI0
aI0
aI0
aI0
aI0
aI0
aI0
aI0
aI0
aI0
aI0
aI0
aI0
aI0
aI0
aI0
aI0
aI0
aI0
aI0
aI0
aI0
aI0
aI0
aI0
aI0
aI0
aI0
aI6
aI0
aI0
aI0
aI37
aI0
aI0
aI0
aI0
aI0
aI0
aI0
aI0
aI0
aI0
aI0
aI35
aI0
aI0
aI0
aI0
aI0
aI0
aI0
aI0
aI0
aI0
aI0
aI0
aI0
aI0
aI0
aI0
aI0
aI0
aI0
aI0
aI0
aI0
aI0
aI0
aI0
aI0
aI0
aa(lp10
F291.66587857197686
aF-26.47597667340946
aF-76.07432028108519
aF7252.805321310864
aF63.81514692965293
aF517.7029373726241
aF1.0
aF1.0
aF1.0
aF1.0
aF1.0
aF1.0
aF1.0
aF1.0
aF1.0
aF1.0
aI0
aI0
aI0
aI0
aI0
aI0
aI0
aI0
aI0
aI0
aI0
aI1
aI0
aI1
aI1
aI0
aI2
aI2
aI1
aI0
aI0
aI0
aI0
aI0
aI0
aI0
aI0
aI0
aI0
aI0
aI3
aI0
aI0
aI1
aI0
aI0
aI1
aI0
aI0
aI0
aI0
aI0
aI0
aI0
aI0
aI0
aI0
aI0
aI0
aI0
aI0
aI0
aI8
aI52
aI4
aI0
aI0
aI3
aI2
aI0
aI0
aI0
aI0
aI0
aI0
aI0
aI0
aI0
aI0
aI1
aI7
aI9
aI0
aI4
aI37
aI2
aI0
aI0
aI1
aI0
aI0
aI0
aI0
aI2
aI0
aI0
aI0
aI0
aI2
aI0
aI0
aI1
aI0
aI2
aI2
aI3
aI0
aI1
aI1
aI0
aI0
aI0
aI0
aI1
aI0
aI0
aI0
aI0
aI0
aI0
aI2
aI1
aI0
aI1
aI0
aI0
aI2
aI0
aI0
aI0
aI0
aI0
aI0
aI0
aI0
aI0
aI0
aI0
aI0
aI0
aI0
aI0
aI0
aI0
aI0
aI0
aI0
aI0
aI0
aI0
aI0
aI0
aI0
aI0
aI0
aI0
aI0
aI16
aI0
aI0
aI0
aI0
aI0
aI0
aI0
aI0
aI0
aI0
aI0
aI0
aI0
aI0
aI0
aI66
aI0
aI0
aI0
aI0
aI0
aI0
aI0
aI0
aI0
aI0
aI0
aI0
aI0
aI0
aI0
aI0
aI0
aI0
aI0
aI0
aI0
aI0
aI0
aI0
aI0
aI0
aI0
aI0
aI0
aI0
aI0
aI0
aI0
aI0
aI0
aI0
aI0
aI0
aI0
aI0
aI0
aI0
aI0
aI0
aI0
aI0
aI0
aI0
aI1
aI0
aI0
aI0
aI44
aI0
aI0
aI0
aI0
aI0
aI0
aI0
aI0
aI0
aI0
aI0
aI6
aI0
aI0
aI0
aI0
aI0
aI0
aI0
aI0
aI0
aI0
aI0
aI0
aI0
aI0
aI0
aI1
aI1
aI1
aI28
aI0
aI0
aI0
aI0
aI0
aI0
aI0
aI0
aI0
aI0
aI0
aI0
aI0
aI0
aI0
aI0
aI0
aI0
aI0
aI0
aI0
aI0
aI0
aI0
aI0
aI0
aI0
aI0
aI5
aI0
aI0
aI0
aI41
aI0
aI0
aI0
aI0
aI0
aI0
aI0
aI0
aI0
aI0
aI0
aI36
aI0
aI0
aI0
aI0
aI0
aI0
aI0
aI0
aI0
aI0
aI0
aI0
aI0
aI0
aI0
aI0
aI0
aI0
aI0
aI0
aI0
aI0
aI0
aI0
aI0
aI0
aI0
aa(lp11
F300.6707528161495
aF-17.586101037881242
aF-57.728640582305275
aF7451.929404905579
aF38.54701087063478
aF301.425185315435
aF1.0
aF1.0
aF1.0
aF1.0
aF1.0
aF1.0
aF1.0
aF1.0
aF1.0
aF1.0
aI0
aI0
aI0
aI0
aI0
aI2
aI0
aI0
aI0
aI0
aI0
aI0
aI0
aI0
aI1
aI0
aI1
aI0
aI0
aI0
aI0
aI0
aI0
aI0
aI0
aI0
aI0
aI1
aI0
aI0
aI0
aI0
aI0
aI1
aI1
aI0
aI0
aI0
aI0
aI0
aI0
aI0
aI0
aI0
aI0
aI3
aI1
aI0
aI0
aI1
aI0
aI0
aI0
aI45
aI1
aI0
aI0
aI17
aI5
aI0
aI0
aI0
aI1
aI0
aI0
aI1
aI0
aI0
aI0
aI3
aI14
aI0
aI0
aI11
aI33
aI2
aI0
aI1
aI0
aI0
aI0
aI0
aI0
aI1
aI0
aI0
aI0
aI3
aI1
aI0
aI0
aI2
aI1
aI2
aI0
aI1
aI1
aI0
aI0
aI1
aI1
aI0
aI0
aI1
aI0
aI0
aI0
aI0
aI0
aI0
aI0
aI0
aI0
aI1
aI0
aI0
aI0
aI0
aI0
aI0
aI0
aI0
aI0
aI0
aI0
aI0
aI0
aI0
aI0
aI0
aI0
aI0
aI0
aI0
aI0
aI0
aI0
aI0
aI0
aI0
aI0
aI0
aI0
aI0
aI0
aI0
aI0
aI17
aI0
aI0
aI0
aI0
aI0
aI0
aI0
aI0
aI0
aI0
aI0
aI0
aI0
aI0
aI0
aI64
aI0
aI0
aI0
aI0
aI0
aI0
aI0
aI0
aI0
aI0
aI0
aI0
aI0
aI0
aI0
aI0
aI0
aI0
aI0
aI0
aI0
aI0
aI0
aI0
aI0
aI0
aI0
aI0
aI0
aI0
aI0
aI0
aI0
aI0
aI0
aI0
aI0
aI0
aI0
aI0
aI0
aI0
aI0
aI0
aI0
aI0
aI0
aI0
aI1
aI0
aI0
aI0
aI44
aI0
aI0
aI0
aI0
aI0
aI0
aI0
aI0
aI0
aI0
aI0
aI10
aI0
aI0
aI0
aI0
aI0
aI0
aI0
aI0
aI0
aI0
aI0
aI0
aI0
aI0
aI0
aI4
aI22
aI0
aI0
aI0
aI0
aI0
aI0
aI0
aI0
aI0
aI0
aI0
aI0
aI0
aI0
aI0
aI0
aI0
aI0
aI0
aI0
aI0
aI0
aI0
aI0
aI0
aI0
aI0
aI0
aI0
aI0
aI6
aI0
aI0
aI0
aI40
aI0
aI0
aI0
aI0
aI0
aI0
aI0
aI0
aI0
aI0
aI0
aI35
aI0
aI0
aI0
aI0
aI0
aI0
aI0
aI0
aI0
aI0
aI0
aI0
aI0
aI0
aI0
aI0
aI0
aI0
aI0
aI0
aI0
aI0
aI0
aI0
aI0
aI0
aI0
aa(lp12
F8.183740100404183
aF1.8149555211679902
aF-9.05664075025023
aF1387.4848813735505
aF881.9315646849818
aF1469.5750606873373
aF216989.7097463504
aF216989.7097463504
aF216989.7097463504
aF216989.7097463504
aF216989.7097463504
aF216989.7097463504
aF216989.7097463504
aF216989.7097463504
aF216989.7097463504
aF216989.7097463504
aI0
aI15
aI69
aI3
aI8
aI3
aI52
aI6
aI6
aI8
aI53
aI6
aI5
aI8
aI39
aI4
aI8
aI25
aI68
aI5
aI7
aI0
aI0
aI9
aI13
aI0
aI0
aI3
aI18
aI33
aI33
aI5
aI3
aI39
aI16
aI8
aI3
aI0
aI0
aI8
aI4
aI0
aI0
aI6
aI8
aI62
aI9
aI5
aI0
aI33
aI7
aI0
aI3
aI46
aI4
aI5
aI10
aI85
aI15
aI4
aI8
aI107
aI24
aI2
aI1
aI1
aI15
aI0
aI5
aI9
aI34
aI26
aI1
aI0
aI0
aI9
aI0
aI0
aI0
aI0
aI4
aI5
aI5
aI2
aI5
aI0
aI0
aI0
aI2
aI0
aI0
aI5
aI1
aI0
aI1
aI1
aI4
aI2
aI2
aI1
aI6
aI0
aI0
aI7
aI0
aI0
aI0
aI0
aI0
aI1
aI0
aI1
aI0
aI5
aI2
aI1
aI5
aI6
aI2
aI2
aI6
aI18
aI2
aI1
aI0
aI16
aI1
aI0
aI0
aI0
aI0
aI0
aI0
aI0
aI0
aI0
aI0
aI0
aI0
aI0
aI0
aI0
aI0
aI0
aI0
aI0
aI0
aI0
aI0
aI0
aI0
aI0
aI0
aI0
aI0
aI0
aI0
aI0
aI0
aI0
aI0
aI0
aI0
aI0
aI0
aI0
aI0
aI223
aI0
aI0
aI0
aI0
aI0
aI0
aI0
aI0
aI0
aI0
aI0
aI0
aI0
aI0
aI0
aI0
aI0
aI0
aI0
aI0
aI0
aI0
aI0
aI0
aI0
aI0
aI0
aI0
aI0
aI0
aI0
aI0
aI0
aI0
aI0
aI1
aI0
aI1
aI0
aI0
aI0
aI0
aI0
aI0
aI135
aI0
aI0
aI68
aI264
aI0
aI0
aI53
aI2
aI2
aI1
aI3
aI0
aI0
aI0
aI0
aI358
aI0
aI0
aI0
aI146
aI0
aI0
aI0
aI2
aI0
aI0
aI0
aI0
aI0
aI0
aI0
aI0
aI0
aI0
aI0
aI0
aI0
aI0
aI0
aI0
aI0
aI0
aI0
aI0
aI0
aI0
aI0
aI1
aI0
aI0
aI0
aI0
aI0
aI0
aI0
aI0
aI0
aI0
aI0
aI0
aI0
aI0
aI0
aI91
aI0
aI0
aI2
aI6
aI0
aI0
aI0
aI0
aI0
aI0
aI0
aI0
aI0
aI0
aI0
aI0
aI0
aI0
aI2
aI41
aI0
aI0
aI48
aI0
aI0
aI0
aI0
aI0
aI0
aI0
aI0
aI0
aI0
aI0
aI0
aI12
aI7
aI0
aI8
aI0
aI2
aI3
aI0
aa(lp13
F-40.09737096938478
aF-27.308513401576175
aF12.160009522183886
aF1400.2025681384127
aF910.4919287830463
aF1039.991400075339
aF42334.00243944222
aF42334.00243944222
aF42334.00243944222
aF42334.00243944222
aF42334.00243944222
aF42334.00243944222
aF42334.00243944222
aF42334.00243944222
aF42334.00243944222
aF42334.00243944222
aI1
aI12
aI70
aI0
aI6
aI10
aI71
aI6
aI2
aI13
aI41
aI1
aI0
aI4
aI36
aI0
aI7
aI18
aI55
aI8
aI3
aI0
aI0
aI1
aI5
aI0
aI0
aI2
aI6
aI24
aI28
aI12
aI3
aI14
aI15
aI5
aI6
aI0
aI0
aI7
aI4
aI0
aI0
aI2
aI3
aI37
aI9
aI2
aI1
aI24
aI2
aI0
aI3
aI24
aI0
aI1
aI3
aI19
aI0
aI0
aI1
aI32
aI0
aI0
aI0
aI2
aI15
aI1
aI0
aI0
aI0
aI3
aI0
aI0
aI0
aI2
aI0
aI0
aI0
aI0
aI1
aI10
aI5
aI2
aI1
aI0
aI0
aI1
aI4
aI0
aI0
aI0
aI0
aI1
aI0
aI0
aI6
aI2
aI3
aI0
aI1
aI0
aI0
aI0
aI7
aI0
aI0
aI4
aI1
aI3
aI18
aI6
aI1
aI1
aI1
aI0
aI8
aI2
aI2
aI0
aI9
aI11
aI1
aI3
aI1
aI28
aI6
aI1
aI0
aI0
aI0
aI0
aI0
aI0
aI0
aI0
aI0
aI0
aI0
aI0
aI0
aI0
aI0
aI0
aI0
aI0
aI0
aI0
aI0
aI0
aI0
aI0
aI0
aI0
aI0
aI0
aI0
aI0
aI0
aI0
aI0
aI0
aI0
aI0
aI0
aI0
aI0
aI170
aI0
aI0
aI0
aI0
aI0
aI0
aI0
aI0
aI0
aI0
aI0
aI0
aI0
aI0
aI0
aI4
aI0
aI0
aI0
aI0
aI0
aI0
aI0
aI0
aI0
aI0
aI0
aI0
aI0
aI0
aI0
aI0
aI0
aI0
aI0
aI0
aI0
aI0
aI1
aI0
aI0
aI0
aI0
aI0
aI98
aI0
aI0
aI18
aI199
aI0
aI0
aI18
aI1
aI1
aI0
aI1
aI0
aI0
aI0
aI0
aI203
aI0
aI0
aI0
aI119
aI0
aI0
aI0
aI0
aI0
aI0
aI0
aI0
aI0
aI0
aI0
aI0
aI0
aI0
aI0
aI0
aI0
aI0
aI0
aI0
aI0
aI0
aI0
aI0
aI0
aI0
aI0
aI18
aI0
aI0
aI0
aI8
aI0
aI0
aI0
aI0
aI0
aI0
aI0
aI5
aI28
aI10
aI0
aI5
aI0
aI0
aI0
aI2
aI0
aI0
aI0
aI7
aI0
aI0
aI0
aI0
aI2
aI0
aI0
aI1
aI0
aI0
aI0
aI9
aI0
aI0
aI0
aI2
aI7
aI0
aI0
aI0
aI1
aI1
aI0
aI0
aI0
aI2
aI0
aI0
aI0
aI1
aI27
aI3
aI26
aI5
aI4
aa(lp14
F25.111353280754816
aF-33.19593950786994
aF0.24744316800204566
aF1244.9041514826197
aF676.5314071584418
aF752.1019837101746
aF25665.343322507913
aF25665.343322507913
aF25665.343322507913
aF25665.343322507913
aF25665.343322507913
aF25665.343322507913
aF25665.343322507913
aF25665.343322507913
aF25665.343322507913
aF25665.343322507913
aI0
aI3
aI20
aI2
aI2
aI3
aI12
aI6
aI0
aI3
aI8
aI7
aI1
aI1
aI17
aI3
aI3
aI10
aI37
aI10
aI0
aI0
aI0
aI2
aI2
aI0
aI0
aI5
aI0
aI11
aI16
aI11
aI8
aI34
aI32
aI4
aI4
aI0
aI0
aI3
aI3
aI0
aI0
aI8
aI1
aI37
aI17
aI8
aI2
aI38
aI6
aI2
aI10
aI33
aI5
aI4
aI8
aI40
aI3
aI3
aI1
aI35
aI10
aI1
aI1
aI3
aI16
aI3
aI2
aI8
aI8
aI6
aI4
aI2
aI1
aI6
aI0
aI0
aI0
aI1
aI6
aI4
aI6
aI7
aI9
aI0
aI0
aI2
aI2
aI0
aI0
aI5
aI0
aI1
aI0
aI1
aI1
aI2
aI0
aI0
aI8
aI0
aI0
aI4
aI1
aI0
aI0
aI3
aI1
aI1
aI4
aI0
aI0
aI0
aI0
aI0
aI1
aI2
aI0
aI0
aI1
aI3
aI0
aI2
aI0
aI5
aI12
aI1
aI0
aI0
aI0
aI0
aI0
aI0
aI0
aI0
aI0
aI0
aI0
aI0
aI0
aI0
aI0
aI0
aI0
aI0
aI0
aI0
aI0
aI0
aI0
aI0
aI0
aI0
aI0
aI0
aI0
aI0
aI0
aI0
aI0
aI0
aI0
aI0
aI0
aI0
aI0
aI147
aI0
aI0
aI0
aI0
aI0
aI0
aI0
aI0
aI0
aI0
aI0
aI0
aI0
aI0
aI0
aI9
aI0
aI0
aI0
aI0
aI0
aI0
aI0
aI0
aI0
aI0
aI0
aI0
aI0
aI0
aI0
aI0
aI1
aI0
aI0
aI1
aI0
aI0
aI0
aI0
aI0
aI0
aI0
aI0
aI134
aI0
aI0
aI5
aI160
aI0
aI0
aI17
aI0
aI2
aI0
aI1
aI0
aI0
aI0
aI0
aI146
aI0
aI0
aI0
aI88
aI0
aI0
aI0
aI0
aI0
aI0
aI0
aI0
aI0
aI0
aI0
aI0
aI0
aI0
aI0
aI0
aI0
aI0
aI0
aI0
aI0
aI0
aI0
aI0
aI0
aI0
aI0
aI0
aI0
aI0
aI0
aI0
aI0
aI0
aI0
aI0
aI0
aI0
aI0
aI0
aI0
aI0
aI0
aI70
aI0
aI0
aI0
aI7
aI0
aI0
aI0
aI0
aI0
aI0
aI0
aI0
aI0
aI0
aI0
aI13
aI0
aI0
aI0
aI38
aI0
aI0
aI0
aI0
aI0
aI0
aI0
aI0
aI0
aI0
aI0
aI0
aI0
aI0
aI0
aI4
aI2
aI3
aI0
aI3
aI7
aI9
aI0
aa(lp15
F-16.621678851786672
aF-26.58447742818138
aF3.0839178838328807
aF1434.4736834705368
aF640.3163766487559
aF922.9482212864679
aF37552.08912288518
aF37552.08912288518
aF37552.08912288518
aF37552.08912288518
aF37552.08912288518
aF37552.08912288518
aF37552.08912288518
aF37552.08912288518
aF37552.08912288518
aF37552.08912288518
aI2
aI38
aI26
aI1
aI8
aI14
aI28
aI7
aI6
aI12
aI29
aI6
aI2
aI5
aI24
aI1
aI11
aI19
aI37
aI4
aI4
aI0
aI0
aI2
aI3
aI0
aI0
aI7
aI2
aI18
aI17
aI7
aI8
aI24
aI18
aI4
aI3
aI0
aI0
aI2
aI1
aI0
aI0
aI4
aI0
aI33
aI5
aI3
aI3
aI23
aI5
aI0
aI11
aI11
aI0
aI0
aI5
aI14
aI0
aI0
aI1
aI22
aI1
aI0
aI0
aI4
aI6
aI0
aI0
aI0
aI1
aI1
aI0
aI0
aI0
aI0
aI0
aI0
aI0
aI0
aI2
aI6
aI3
aI3
aI8
aI0
aI0
aI2
aI4
aI0
aI0
aI1
aI0
aI0
aI5
aI10
aI1
aI4
aI1
aI1
aI4
aI0
aI0
aI4
aI1
aI0
aI0
aI7
aI0
aI7
aI14
aI4
aI0
aI0
aI1
aI0
aI0
aI1
aI0
aI3
aI4
aI0
aI0
aI6
aI1
aI14
aI11
aI0
aI0
aI0
aI0
aI0
aI0
aI0
aI0
aI0
aI0
aI0
aI0
aI0
aI0
aI0
aI0
aI0
aI0
aI0
aI0
aI0
aI0
aI0
aI0
aI0
aI0
aI0
aI0
aI0
aI0
aI0
aI0
aI0
aI0
aI0
aI0
aI0
aI0
aI0
aI0
aI145
aI0
aI0
aI0
aI0
aI0
aI0
aI0
aI0
aI0
aI0
aI0
aI0
aI0
aI0
aI0
aI0
aI0
aI0
aI0
aI0
aI0
aI0
aI0
aI0
aI0
aI0
aI0
aI0
aI0
aI0
aI0
aI0
aI0
aI0
aI0
aI0
aI0
aI1
aI0
aI0
aI0
aI0
aI0
aI0
aI116
aI0
aI0
aI11
aI129
aI0
aI0
aI37
aI0
aI0
aI0
aI0
aI0
aI0
aI0
aI0
aI146
aI0
aI0
aI0
aI101
aI0
aI0
aI0
aI0
aI0
aI0
aI0
aI0
aI0
aI0
aI0
aI0
aI0
aI0
aI0
aI0
aI0
aI0
aI0
aI0
aI0
aI0
aI0
aI0
aI0
aI0
aI0
aI0
aI0
aI0
aI0
aI0
aI0
aI0
aI0
aI0
aI0
aI0
aI0
aI18
aI0
aI0
aI0
aI41
aI0
aI0
aI0
aI19
aI0
aI0
aI0
aI0
aI0
aI0
aI0
aI0
aI0
aI0
aI0
aI5
aI0
aI0
aI0
aI32
aI0
aI0
aI16
aI1
aI0
aI0
aI0
aI0
aI0
aI0
aI0
aI4
aI0
aI0
aI0
aI0
aI0
aI3
aI4
aI1
aI0
aI1
aI0
aa(lp16
F12.870978223643442
aF3.350826972885132
aF-9.724651487727792
aF1650.1758509681633
aF778.7148634721532
aF1433.4256507101068
aF309299.39003917354
aF309299.39003917354
aF309299.39003917354
aF309299.39003917354
aF309299.39003917354
aF309299.39003917354
aF309299.39003917354
aF309299.39003917354
aF309299.39003917354
aF309299.39003917354
aI1
aI12
aI50
aI2
aI5
aI6
aI42
aI18
aI7
aI11
aI35
aI8
aI0
aI10
aI24
aI0
aI17
aI19
aI53
aI2
aI5
aI0
aI0
aI6
aI3
aI0
aI0
aI1
aI1
aI25
aI15
aI1
aI2
aI30
aI32
aI2
aI2
aI0
aI0
aI2
aI1
aI0
aI0
aI2
aI6
aI46
aI4
aI3
aI0
aI35
aI7
aI0
aI3
aI46
aI3
aI2
aI5
aI52
aI4
aI1
aI3
aI66
aI5
aI0
aI0
aI0
aI14
aI3
aI1
aI8
aI28
aI6
aI0
aI0
aI0
aI2
aI0
aI0
aI0
aI0
aI1
aI0
aI7
aI2
aI0
aI0
aI0
aI5
aI2
aI0
aI0
aI4
aI1
aI0
aI4
aI1
aI5
aI0
aI3
aI1
aI0
aI0
aI0
aI2
aI1
aI0
aI0
aI0
aI0
aI3
aI3
aI0
aI3
aI2
aI1
aI0
aI5
aI1
aI4
aI0
aI0
aI9
aI3
aI0
aI0
aI6
aI12
aI0
aI0
aI0
aI0
aI0
aI0
aI0
aI0
aI0
aI0
aI0
aI0
aI0
aI0
aI0
aI0
aI0
aI0
aI0
aI0
aI0
aI0
aI0
aI0
aI0
aI0
aI0
aI0
aI0
aI0
aI0
aI0
aI0
aI0
aI0
aI0
aI0
aI0
aI0
aI0
aI153
aI0
aI0
aI0
aI0
aI0
aI0
aI0
aI0
aI0
aI0
aI0
aI0
aI0
aI0
aI0
aI0
aI0
aI0
aI0
aI0
aI0
aI0
aI0
aI0
aI0
aI0
aI0
aI0
aI0
aI0
aI0
aI0
aI1
aI1
aI1
aI2
aI0
aI1
aI1
aI0
aI0
aI0
aI0
aI0
aI73
aI0
aI0
aI56
aI207
aI0
aI0
aI23
aI0
aI0
aI0
aI1
aI0
aI0
aI0
aI0
aI258
aI0
aI0
aI0
aI118
aI0
aI0
aI0
aI0
aI0
aI0
aI0
aI0
aI0
aI0
aI0
aI0
aI0
aI0
aI0
aI0
aI0
aI0
aI0
aI0
aI0
aI0
aI0
aI0
aI0
aI0
aI0
aI19
aI0
aI0
aI0
aI3
aI3
aI0
aI0
aI0
aI1
aI2
aI1
aI0
aI0
aI0
aI0
aI41
aI0
aI0
aI0
aI5
aI0
aI0
aI0
aI0
aI0
aI2
aI4
aI0
aI0
aI0
aI0
aI9
aI0
aI0
aI0
aI5
aI0
aI0
aI2
aI0
aI0
aI0
aI23
aI0
aI0
aI0
aI0
aI4
aI6
aI5
aI5
aI4
aI3
aI5
aI1
aI0
aI0
aI0
aI0
aa(lp17
F2.49508891583836
aF2.0321563922946986
aF3.1786154128978525
aF1642.296578354812
aF663.2016486843746
aF1588.6160926224527
aF35783.979610335584
aF35783.979610335584
aF35783.979610335584
aF35783.979610335584
aF35783.979610335584
aF35783.979610335584
aF35783.979610335584
aF35783.979610335584
aF35783.979610335584
aF35783.979610335584
aI1
aI3
aI26
aI0
aI3
aI8
aI25
aI2
aI3
aI5
aI15
aI4
aI0
aI14
aI8
aI2
aI15
aI23
aI47
aI1
aI4
aI0
aI0
aI2
aI0
aI0
aI0
aI0
aI2
aI35
aI5
aI7
aI12
aI36
aI26
aI3
aI3
aI0
aI0
aI1
aI2
aI0
aI0
aI0
aI1
aI39
aI8
aI3
aI1
aI20
aI3
aI0
aI1
aI28
aI7
aI2
aI3
aI45
aI6
aI0
aI0
aI49
aI1
aI0
aI0
aI4
aI10
aI2
aI0
aI2
aI19
aI13
aI0
aI1
aI1
aI5
aI0
aI1
aI0
aI0
aI2
aI2
aI8
aI1
aI2
aI0
aI0
aI4
aI0
aI0
aI0
aI0
aI0
aI0
aI2
aI1
aI3
aI1
aI2
aI0
aI6
aI0
aI0
aI1
aI1
aI0
aI0
aI2
aI1
aI1
aI7
aI1
aI0
aI2
aI0
aI0
aI5
aI2
aI1
aI1
aI11
aI3
aI0
aI1
aI0
aI8
aI11
aI0
aI0
aI0
aI0
aI0
aI0
aI0
aI0
aI0
aI0
aI0
aI0
aI0
aI0
aI0
aI0
aI0
aI0
aI0
aI0
aI0
aI0
aI0
aI0
aI0
aI0
aI0
aI0
aI0
aI0
aI0
aI0
aI0
aI0
aI0
aI0
aI0
aI0
aI0
aI0
aI151
aI0
aI0
aI0
aI0
aI0
aI0
aI0
aI0
aI0
aI0
aI0
aI0
aI0
aI0
aI0
aI0
aI0
aI0
aI0
aI0
aI0
aI0
aI0
aI0
aI0
aI0
aI0
aI0
aI0
aI0
aI0
aI0
aI0
aI0
aI0
aI2
aI1
aI1
aI0
aI0
aI0
aI0
aI0
aI0
aI72
aI0
aI0
aI30
aI128
aI0
aI0
aI52
aI0
aI0
aI1
aI0
aI0
aI0
aI0
aI0
aI157
aI0
aI0
aI0
aI116
aI0
aI0
aI0
aI0
aI0
aI0
aI0
aI0
aI0
aI0
aI0
aI0
aI0
aI0
aI0
aI0
aI0
aI0
aI0
aI0
aI0
aI0
aI0
aI0
aI18
aI0
aI0
aI28
aI3
aI0
aI0
aI0
aI0
aI1
aI0
aI0
aI0
aI1
aI0
aI6
aI3
aI0
aI0
aI8
aI0
aI0
aI0
aI5
aI0
aI0
aI0
aI3
aI0
aI0
aI0
aI0
aI0
aI0
aI0
aI2
aI0
aI0
aI0
aI4
aI0
aI0
aI8
aI1
aI3
aI8
aI6
aI0
aI0
aI0
aI0
aI0
aI1
aI3
aI9
aI4
aI3
aI4
aI14
aI0
aI0
aI0
aI5
aa(lp18
F-1.0922113861716085
aF-0.09391947416023581
aF4.677017417596293
aF1507.7921725268184
aF652.0813756708046
aF1209.2863750698968
aF163867.37657354472
aF163867.37657354472
aF163867.37657354472
aF163867.37657354472
aF163867.37657354472
aF163867.37657354472
aF163867.37657354472
aF163867.37657354472
aF163867.37657354472
aF163867.37657354472
aI0
aI1
aI24
aI4
aI1
aI3
aI30
aI12
aI6
aI7
aI26
aI5
aI0
aI20
aI38
aI1
aI1
aI3
aI47
aI5
aI4
aI0
aI0
aI3
aI1
aI0
aI0
aI1
aI2
aI50
aI25
aI8
aI0
aI18
aI36
aI3
aI1
aI0
aI0
aI1
aI3
aI0
aI0
aI0
aI3
aI72
aI11
aI3
aI0
aI20
aI8
aI0
aI2
aI29
aI1
aI0
aI3
aI23
aI4
aI1
aI4
aI41
aI4
aI0
aI0
aI3
aI22
aI5
aI0
aI1
aI5
aI3
aI0
aI1
aI0
aI4
aI0
aI0
aI0
aI0
aI0
aI2
aI8
aI3
aI3
aI0
aI0
aI3
aI0
aI0
aI0
aI4
aI0
aI0
aI0
aI0
aI8
aI2
aI2
aI3
aI8
aI0
aI0
aI0
aI1
aI0
aI0
aI0
aI0
aI0
aI7
aI0
aI0
aI3
aI4
aI0
aI3
aI5
aI2
aI0
aI3
aI5
aI1
aI0
aI0
aI11
aI3
aI0
aI0
aI0
aI0
aI0
aI0
aI0
aI0
aI0
aI0
aI0
aI0
aI0
aI0
aI0
aI0
aI0
aI0
aI0
aI0
aI0
aI0
aI0
aI0
aI0
aI0
aI0
aI0
aI0
aI0
aI0
aI0
aI0
aI0
aI0
aI0
aI0
aI0
aI0
aI0
aI138
aI0
aI0
aI0
aI0
aI0
aI0
aI0
aI0
aI0
aI0
aI0
aI0
aI0
aI0
aI0
aI0
aI0
aI0
aI0
aI0
aI0
aI0
aI0
aI0
aI0
aI0
aI0
aI0
aI0
aI0
aI0
aI0
aI0
aI0
aI0
aI0
aI0
aI0
aI1
aI0
aI0
aI0
aI0
aI0
aI110
aI0
aI0
aI38
aI162
aI0
aI0
aI27
aI2
aI0
aI0
aI3
aI0
aI0
aI0
aI0
aI147
aI0
aI0
aI0
aI129
aI0
aI0
aI0
aI0
aI0
aI0
aI0
aI0
aI0
aI0
aI0
aI0
aI0
aI0
aI0
aI0
aI0
aI0
aI0
aI0
aI0
aI0
aI0
aI0
aI0
aI0
aI0
aI0
aI0
aI0
aI0
aI0
aI0
aI0
aI0
aI0
aI0
aI0
aI0
aI0
aI0
aI0
aI0
aI56
aI0
aI0
aI0
aI17
aI0
aI0
aI0
aI0
aI0
aI0
aI0
aI0
aI0
aI0
aI0
aI12
aI0
aI0
aI0
aI24
aI0
aI0
aI13
aI2
aI2
aI0
aI2
aI0
aI0
aI0
aI0
aI0
aI0
aI0
aI0
aI8
aI0
aI0
aI0
aI0
aI1
aI1
aI0
aa(lp19
F-3.240140876313048
aF-31.1898964704459
aF7.677136203808611
aF1502.111313887348
aF773.2380748773554
aF761.1790574660969
aF93652.75567744911
aF93652.75567744911
aF93652.75567744911
aF93652.75567744911
aF93652.75567744911
aF93652.75567744911
aF93652.75567744911
aF93652.75567744911
aF93652.75567744911
aF93652.75567744911
aI0
aI2
aI29
aI3
aI0
aI1
aI24
aI4
aI1
aI0
aI15
aI3
aI0
aI4
aI21
aI0
aI0
aI7
aI42
aI8
aI0
aI0
aI0
aI1
aI0
aI0
aI0
aI0
aI1
aI21
aI19
aI1
aI2
aI21
aI39
aI7
aI1
aI0
aI0
aI0
aI0
aI0
aI0
aI2
aI3
aI40
aI6
aI1
aI1
aI27
aI7
aI1
aI9
aI39
aI13
aI3
aI7
aI38
aI4
aI0
aI0
aI44
aI5
aI0
aI0
aI3
aI15
aI5
aI4
aI1
aI6
aI12
aI0
aI1
aI5
aI4
aI0
aI1
aI1
aI1
aI1
aI2
aI4
aI1
aI2
aI0
aI0
aI4
aI0
aI0
aI0
aI1
aI0
aI0
aI0
aI0
aI4
aI2
aI2
aI1
aI0
aI0
aI0
aI0
aI0
aI0
aI0
aI3
aI0
aI3
aI8
aI2
aI0
aI0
aI0
aI0
aI5
aI2
aI0
aI0
aI5
aI2
aI0
aI0
aI1
aI9
aI3
aI0
aI0
aI0
aI0
aI0
aI0
aI0
aI0
aI0
aI0
aI0
aI0
aI0
aI0
aI0
aI0
aI0
aI0
aI0
aI0
aI0
aI0
aI0
aI0
aI0
aI0
aI0
aI0
aI0
aI0
aI0
aI0
aI0
aI0
aI0
aI0
aI0
aI0
aI0
aI0
aI104
aI0
aI0
aI0
aI22
aI0
aI0
aI0
aI0
aI0
aI0
aI0
aI0
aI0
aI0
aI0
aI0
aI0
aI0
aI0
aI0
aI0
aI0
aI0
aI0
aI0
aI0
aI0
aI0
aI0
aI0
aI0
aI0
aI0
aI0
aI0
aI1
aI0
aI1
aI0
aI0
aI0
aI0
aI0
aI0
aI120
aI0
aI0
aI8
aI152
aI0
aI0
aI4
aI0
aI0
aI0
aI0
aI0
aI0
aI0
aI0
aI135
aI0
aI0
aI0
aI106
aI0
aI0
aI0
aI0
aI0
aI0
aI0
aI0
aI0
aI0
aI0
aI0
aI0
aI0
aI0
aI0
aI0
aI0
aI0
aI0
aI0
aI0
aI0
aI0
aI4
aI3
aI0
aI0
aI31
aI0
aI1
aI2
aI1
aI0
aI0
aI0
aI1
aI0
aI0
aI2
aI13
aI0
aI0
aI1
aI0
aI0
aI2
aI1
aI0
aI0
aI0
aI0
aI2
aI0
aI0
aI0
aI0
aI0
aI0
aI0
aI0
aI0
aI0
aI0
aI0
aI0
aI3
aI3
aI6
aI2
aI0
aI0
aI0
aI0
aI0
aI0
aI0
aI0
aI2
aI0
aI0
aI12
aI10
aI0
aI8
aI16
aI0
aa(lp20
F-16.406196875009954
aF-34.00840620802976
aF15.060882851710163
aF1498.8115756204747
aF641.5626986321851
aF702.2437370776292
aF47948.33721656628
aF47948.33721656628
aF47948.33721656628
aF47948.33721656628
aF47948.33721656628
aF47948.33721656628
aF47948.33721656628
aF47948.33721656628
aF47948.33721656628
aF47948.33721656628
aI0
aI3
aI39
aI1
aI0
aI1
aI24
aI2
aI0
aI1
aI21
aI2
aI0
aI1
aI18
aI0
aI0
aI4
aI44
aI0
aI0
aI0
aI0
aI0
aI0
aI0
aI0
aI2
aI1
aI18
aI12
aI0
aI1
aI14
aI38
aI2
aI0
aI0
aI0
aI0
aI3
aI0
aI0
aI0
aI4
aI35
aI0
aI0
aI1
aI27
aI10
aI0
aI8
aI29
aI2
aI0
aI6
aI54
aI10
aI1
aI4
aI27
aI7
aI0
aI0
aI10
aI8
aI0
aI1
aI4
aI14
aI12
aI3
aI0
aI1
aI2
aI0
aI0
aI0
aI0
aI0
aI4
aI1
aI3
aI1
aI0
aI0
aI2
aI2
aI0
aI0
aI1
aI0
aI0
aI1
aI0
aI5
aI1
aI0
aI0
aI4
aI0
aI0
aI0
aI0
aI0
aI0
aI0
aI0
aI0
aI1
aI2
aI0
aI1
aI0
aI0
aI1
aI4
aI0
aI0
aI3
aI10
aI4
aI0
aI0
aI9
aI9
aI0
aI0
aI0
aI0
aI0
aI0
aI0
aI0
aI0
aI0
aI0
aI0
aI0
aI0
aI0
aI0
aI0
aI0
aI0
aI0
aI0
aI0
aI0
aI0
aI0
aI0
aI0
aI0
aI0
aI0
aI0
aI0
aI0
aI0
aI0
aI0
aI0
aI0
aI0
aI0
aI112
aI0
aI0
aI0
aI12
aI0
aI0
aI0
aI0
aI0
aI0
aI0
aI0
aI0
aI0
aI0
aI0
aI0
aI0
aI0
aI0
aI0
aI0
aI0
aI0
aI0
aI0
aI0
aI0
aI3
aI1
aI0
aI0
aI0
aI0
aI0
aI0
aI0
aI0
aI0
aI0
aI0
aI0
aI0
aI0
aI74
aI0
aI0
aI0
aI163
aI0
aI0
aI0
aI0
aI0
aI0
aI0
aI0
aI0
aI0
aI0
aI136
aI0
aI0
aI0
aI100
aI0
aI0
aI0
aI0
aI0
aI0
aI0
aI0
aI0
aI0
aI0
aI0
aI0
aI0
aI0
aI0
aI0
aI0
aI0
aI0
aI0
aI0
aI0
aI2
aI5
aI0
aI0
aI4
aI5
aI18
aI7
aI2
aI0
aI1
aI0
aI0
aI0
aI0
aI0
aI3
aI0
aI0
aI0
aI5
aI0
aI0
aI0
aI10
aI0
aI0
aI0
aI0
aI0
aI0
aI0
aI0
aI0
aI0
aI0
aI3
aI0
aI0
aI0
aI38
aI0
aI0
aI0
aI6
aI6
aI0
aI0
aI0
aI0
aI0
aI0
aI0
aI0
aI0
aI0
aI9
aI0
aI0
aI0
aI0
aI0
aI0
aI0
aa(lp21
F18.41193132758876
aF347.8422125857014
aF32.674489059072975
aF1790.7152413388478
aF11559.339798428357
aF1112.4149001463325
aF173499.56458672162
aF173499.56458672162
aF173499.56458672162
aF173499.56458672162
aF173499.56458672162
aF173499.56458672162
aF173499.56458672162
aF173499.56458672162
aF173499.56458672162
aF173499.56458672162
aI0
aI4
aI15
aI0
aI2
aI3
aI11
aI0
aI0
aI3
aI4
aI1
aI0
aI3
aI4
aI0
aI0
aI6
aI19
aI7
aI0
aI0
aI0
aI0
aI0
aI0
aI0
aI0
aI1
aI23
aI36
aI15
aI2
aI6
aI8
aI4
aI0
aI0
aI0
aI0
aI0
aI0
aI0
aI1
aI0
aI82
aI113
aI7
aI0
aI1
aI2
aI0
aI0
aI0
aI0
aI0
aI0
aI0
aI0
aI0
aI0
aI0
aI1
aI0
aI0
aI0
aI0
aI0
aI0
aI0
aI0
aI0
aI0
aI0
aI0
aI0
aI0
aI0
aI0
aI0
aI3
aI17
aI22
aI0
aI4
aI0
aI0
aI0
aI2
aI0
aI0
aI0
aI0
aI1
aI0
aI0
aI0
aI0
aI12
aI3
aI2
aI0
aI0
aI0
aI1
aI0
aI0
aI0
aI0
aI7
aI1
aI5
aI0
aI0
aI0
aI0
aI0
aI0
aI0
aI0
aI0
aI0
aI0
aI1
aI0
aI3
aI1
aI0
aI0
aI0
aI0
aI0
aI0
aI0
aI0
aI0
aI0
aI0
aI0
aI0
aI0
aI0
aI0
aI0
aI0
aI0
aI0
aI0
aI0
aI0
aI0
aI0
aI0
aI0
aI0
aI0
aI0
aI0
aI0
aI0
aI0
aI0
aI0
aI25
aI0
aI0
aI0
aI60
aI0
aI0
aI0
aI0
aI0
aI0
aI0
aI0
aI0
aI0
aI0
aI0
aI0
aI0
aI0
aI0
aI0
aI0
aI0
aI0
aI0
aI0
aI0
aI0
aI0
aI0
aI0
aI0
aI0
aI0
aI0
aI0
aI0
aI0
aI0
aI0
aI0
aI0
aI0
aI0
aI0
aI0
aI0
aI0
aI86
aI0
aI0
aI44
aI37
aI0
aI0
aI0
aI23
aI11
aI10
aI3
aI30
aI0
aI0
aI0
aI59
aI0
aI0
aI0
aI35
aI0
aI0
aI0
aI21
aI12
aI13
aI0
aI0
aI0
aI0
aI0
aI0
aI0
aI0
aI0
aI0
aI0
aI0
aI0
aI0
aI0
aI0
aI0
aI0
aI0
aI0
aI0
aI0
aI0
aI0
aI0
aI0
aI0
aI0
aI0
aI0
aI0
aI0
aI0
aI0
aI0
aI0
aI0
aI44
aI0
aI0
aI0
aI0
aI0
aI0
aI0
aI0
aI0
aI0
aI0
aI0
aI0
aI0
aI0
aI2
aI0
aI0
aI0
aI39
aI0
aI0
aI0
aI0
aI0
aI0
aI0
aI0
aI0
aI0
aI0
aI0
aI0
aI0
aI0
aI0
aI0
aI0
aI0
aI0
aI0
aI0
aI0
aa(lp22
F31.714620313742554
aF394.7465526761009
aF38.970941476611046
aF1692.0846227640425
aF15363.054906191193
aF978.7255665886242
aF180273.07540286845
aF180273.07540286845
aF180273.07540286845
aF180273.07540286845
aF180273.07540286845
aF180273.07540286845
aF180273.07540286845
aF180273.07540286845
aF180273.07540286845
aF180273.07540286845
aI1
aI0
aI0
aI0
aI0
aI0
aI0
aI1
aI6
aI5
aI3
aI3
aI0
aI10
aI5
aI1
aI4
aI1
aI1
aI1
aI2
aI0
aI0
aI1
aI4
aI0
aI0
aI0
aI9
aI26
aI56
aI10
aI0
aI0
aI0
aI0
aI2
aI0
aI0
aI1
aI2
aI0
aI0
aI2
aI7
aI69
aI159
aI8
aI0
aI0
aI0
aI0
aI0
aI0
aI0
aI1
aI1
aI0
aI0
aI0
aI2
aI0
aI0
aI0
aI0
aI0
aI0
aI0
aI0
aI1
aI0
aI0
aI0
aI0
aI0
aI0
aI0
aI0
aI0
aI0
aI2
aI27
aI17
aI0
aI3
aI0
aI0
aI0
aI2
aI0
aI0
aI0
aI0
aI0
aI0
aI0
aI2
aI2
aI15
aI5
aI1
aI0
aI0
aI1
aI0
aI0
aI0
aI0
aI1
aI0
aI1
aI0
aI0
aI2
aI2
aI3
aI0
aI0
aI0
aI2
aI0
aI0
aI0
aI0
aI0
aI0
aI0
aI0
aI0
aI0
aI0
aI0
aI0
aI0
aI0
aI0
aI0
aI0
aI0
aI0
aI0
aI0
aI0
aI0
aI0
aI0
aI0
aI0
aI0
aI0
aI0
aI0
aI0
aI0
aI0
aI0
aI0
aI0
aI0
aI0
aI0
aI0
aI0
aI32
aI0
aI0
aI0
aI57
aI0
aI0
aI0
aI0
aI0
aI0
aI0
aI0
aI0
aI0
aI0
aI0
aI0
aI0
aI0
aI0
aI0
aI0
aI0
aI0
aI0
aI0
aI0
aI0
aI0
aI0
aI0
aI0
aI0
aI0
aI0
aI0
aI0
aI0
aI0
aI0
aI0
aI0
aI0
aI0
aI0
aI0
aI0
aI0
aI86
aI0
aI0
aI45
aI56
aI0
aI0
aI3
aI9
aI0
aI0
aI0
aI0
aI0
aI0
aI0
aI89
aI0
aI0
aI0
aI112
aI0
aI0
aI0
aI4
aI0
aI0
aI0
aI0
aI0
aI0
aI0
aI0
aI0
aI0
aI0
aI0
aI0
aI0
aI0
aI0
aI0
aI0
aI0
aI0
aI0
aI0
aI0
aI0
aI0
aI0
aI0
aI0
aI0
aI0
aI0
aI0
aI0
aI0
aI0
aI0
aI0
aI0
aI0
aI43
aI0
aI0
aI0
aI0
aI0
aI0
aI0
aI0
aI0
aI0
aI0
aI0
aI0
aI0
aI0
aI3
aI0
aI0
aI0
aI43
aI0
aI0
aI0
aI0
aI0
aI0
aI0
aI0
aI0
aI0
aI0
aI0
aI0
aI0
aI0
aI0
aI0
aI0
aI0
aI0
aI0
aI0
aI0
aa(lp23
F24.2622242445482
aF407.81390489210645
aF31.345178832046305
aF1600.9695790705644
aF18123.549932479138
aF799.5816153721552
aF137669.16854590407
aF137669.16854590407
aF137669.16854590407
aF137669.16854590407
aF137669.16854590407
aF137669.16854590407
aF137669.16854590407
aF137669.16854590407
aF137669.16854590407
aF137669.16854590407
aI0
aI3
aI2
aI0
aI1
aI1
aI2
aI0
aI1
aI1
aI0
aI1
aI0
aI1
aI0
aI0
aI9
aI10
aI12
aI0
aI1
aI0
aI0
aI0
aI4
aI0
aI0
aI0
aI7
aI17
aI9
aI1
aI1
aI0
aI5
aI6
aI0
aI0
aI0
aI3
aI0
aI0
aI0
aI2
aI0
aI48
aI156
aI8
aI0
aI0
aI2
aI0
aI0
aI0
aI0
aI2
aI0
aI0
aI0
aI0
aI0
aI0
aI0
aI0
aI0
aI0
aI0
aI0
aI0
aI0
aI0
aI0
aI1
aI0
aI0
aI0
aI0
aI1
aI0
aI0
aI1
aI19
aI20
aI0
aI2
aI0
aI0
aI0
aI1
aI0
aI0
aI1
aI1
aI0
aI0
aI0
aI0
aI4
aI2
aI2
aI0
aI0
aI0
aI2
aI1
aI0
aI0
aI1
aI2
aI2
aI2
aI0
aI0
aI1
aI0
aI0
aI1
aI0
aI1
aI0
aI1
aI1
aI0
aI0
aI0
aI0
aI1
aI1
aI0
aI0
aI0
aI0
aI0
aI0
aI0
aI0
aI0
aI0
aI0
aI0
aI0
aI0
aI0
aI0
aI0
aI0
aI0
aI0
aI0
aI0
aI0
aI0
aI0
aI0
aI0
aI0
aI0
aI0
aI0
aI0
aI0
aI0
aI0
aI33
aI0
aI0
aI0
aI39
aI0
aI0
aI0
aI0
aI0
aI0
aI0
aI0
aI0
aI0
aI0
aI0
aI0
aI0
aI0
aI0
aI0
aI0
aI0
aI0
aI0
aI0
aI0
aI0
aI0
aI0
aI0
aI0
aI0
aI0
aI0
aI0
aI0
aI0
aI0
aI0
aI0
aI0
aI0
aI0
aI0
aI0
aI0
aI0
aI61
aI0
aI0
aI28
aI83
aI0
aI0
aI0
aI0
aI0
aI0
aI0
aI0
aI0
aI0
aI0
aI62
aI0
aI0
aI0
aI82
aI0
aI0
aI0
aI0
aI0
aI0
aI0
aI0
aI0
aI0
aI0
aI0
aI0
aI0
aI0
aI0
aI0
aI0
aI0
aI0
aI0
aI0
aI0
aI0
aI0
aI0
aI0
aI0
aI0
aI0
aI0
aI0
aI0
aI0
aI0
aI0
aI0
aI0
aI0
aI0
aI0
aI0
aI0
aI31
aI0
aI0
aI0
aI0
aI0
aI0
aI0
aI0
aI0
aI0
aI0
aI0
aI0
aI0
aI0
aI1
aI0
aI0
aI0
aI40
aI0
aI0
aI0
aI0
aI0
aI0
aI0
aI0
aI0
aI0
aI0
aI0
aI0
aI0
aI0
aI0
aI0
aI0
aI0
aI0
aI0
aI0
aI0
aa(lp24
F26.01868966152932
aF379.6972928361612
aF32.761510627108066
aF1677.441238509534
aF18657.883148959118
aF991.7908771189338
aF172734.3174652674
aF172734.3174652674
aF172734.3174652674
aF172734.3174652674
aF172734.3174652674
aF172734.3174652674
aF172734.3174652674
aF172734.3174652674
aF172734.3174652674
aF172734.3174652674
aI0
aI1
aI1
aI0
aI5
aI1
aI0
aI0
aI0
aI0
aI1
aI0
aI1
aI5
aI2
aI0
aI4
aI2
aI3
aI0
aI8
aI0
aI0
aI0
aI3
aI0
aI0
aI3
aI3
aI21
aI55
aI5
aI6
aI18
aI8
aI0
aI0
aI0
aI0
aI0
aI0
aI0
aI0
aI2
aI0
aI66
aI178
aI3
aI0
aI11
aI8
aI2
aI3
aI2
aI4
aI2
aI1
aI2
aI2
aI0
aI0
aI1
aI4
aI0
aI0
aI2
aI0
aI0
aI0
aI0
aI0
aI1
aI0
aI1
aI0
aI0
aI0
aI7
aI4
aI0
aI3
aI32
aI19
aI3
aI1
aI0
aI0
aI0
aI1
aI0
aI0
aI0
aI0
aI2
aI2
aI0
aI1
aI3
aI8
aI2
aI1
aI0
aI0
aI0
aI1
aI0
aI0
aI0
aI1
aI0
aI0
aI0
aI0
aI0
aI2
aI0
aI0
aI0
aI0
aI0
aI0
aI0
aI1
aI0
aI0
aI1
aI0
aI0
aI0
aI0
aI0
aI0
aI0
aI0
aI0
aI0
aI0
aI0
aI0
aI0
aI0
aI0
aI0
aI0
aI0
aI0
aI0
aI0
aI0
aI0
aI0
aI0
aI0
aI0
aI0
aI0
aI0
aI0
aI0
aI0
aI0
aI0
aI0
aI36
aI0
aI0
aI0
aI63
aI0
aI0
aI0
aI0
aI0
aI0
aI0
aI0
aI0
aI0
aI0
aI0
aI0
aI0
aI0
aI0
aI0
aI0
aI0
aI0
aI0
aI0
aI0
aI0
aI0
aI0
aI0
aI0
aI0
aI0
aI0
aI0
aI0
aI0
aI0
aI0
aI0
aI0
aI0
aI0
aI0
aI0
aI0
aI0
aI92
aI0
aI0
aI48
aI106
aI0
aI0
aI3
aI0
aI0
aI0
aI0
aI0
aI0
aI0
aI0
aI95
aI0
aI0
aI0
aI103
aI0
aI0
aI0
aI0
aI0
aI0
aI0
aI0
aI0
aI0
aI0
aI0
aI0
aI0
aI0
aI0
aI0
aI0
aI0
aI0
aI0
aI0
aI0
aI0
aI0
aI0
aI0
aI0
aI0
aI0
aI0
aI0
aI0
aI0
aI0
aI0
aI0
aI0
aI0
aI0
aI0
aI0
aI0
aI42
aI0
aI0
aI0
aI0
aI0
aI0
aI0
aI0
aI0
aI0
aI0
aI0
aI0
aI0
aI0
aI7
aI0
aI0
aI0
aI50
aI0
aI0
aI0
aI0
aI0
aI0
aI0
aI0
aI0
aI0
aI0
aI0
aI0
aI0
aI0
aI0
aI0
aI0
aI0
aI0
aI0
aI0
aI0
aa(lp25
F24.58584444268866
aF391.6903944118686
aF42.68444627450648
aF1617.6226671703216
aF17250.28051737092
aF1003.6429513645028
aF174760.80086267518
aF174760.80086267518
aF174760.80086267518
aF174760.80086267518
aF174760.80086267518
aF174760.80086267518
aF174760.80086267518
aF174760.80086267518
aF174760.80086267518
aF174760.80086267518
aI1
aI4
aI2
aI0
aI3
aI0
aI0
aI2
aI3
aI0
aI0
aI1
aI0
aI1
aI0
aI0
aI3
aI5
aI8
aI1
aI2
aI0
aI0
aI0
aI2
aI0
aI0
aI0
aI7
aI15
aI72
aI2
aI0
aI6
aI10
aI1
aI0
aI0
aI0
aI1
aI2
aI0
aI0
aI3
aI3
aI56
aI177
aI13
aI0
aI0
aI1
aI1
aI0
aI2
aI0
aI1
aI1
aI0
aI1
aI0
aI0
aI1
aI2
aI0
aI0
aI0
aI0
aI0
aI0
aI0
aI2
aI0
aI0
aI0
aI0
aI0
aI0
aI0
aI0
aI0
aI2
aI46
aI5
aI1
aI0
aI0
aI0
aI0
aI3
aI0
aI0
aI0
aI1
aI0
aI1
aI1
aI0
aI5
aI9
aI0
aI1
aI0
aI0
aI0
aI0
aI0
aI0
aI4
aI1
aI0
aI5
aI1
aI0
aI0
aI1
aI0
aI1
aI0
aI1
aI0
aI0
aI0
aI0
aI0
aI0
aI0
aI1
aI0
aI0
aI0
aI0
aI0
aI0
aI0
aI0
aI0
aI0
aI0
aI0
aI0
aI0
aI0
aI0
aI0
aI0
aI0
aI0
aI0
aI0
aI0
aI0
aI0
aI0
aI0
aI0
aI0
aI0
aI0
aI0
aI0
aI0
aI0
aI0
aI34
aI0
aI0
aI0
aI58
aI0
aI0
aI0
aI0
aI0
aI0
aI0
aI0
aI0
aI0
aI0
aI0
aI0
aI0
aI0
aI0
aI0
aI0
aI0
aI0
aI0
aI0
aI0
aI0
aI0
aI0
aI0
aI0
aI0
aI0
aI0
aI0
aI0
aI0
aI0
aI0
aI0
aI0
aI0
aI0
aI0
aI0
aI0
aI0
aI87
aI0
aI0
aI45
aI96
aI0
aI0
aI4
aI0
aI0
aI0
aI0
aI0
aI0
aI0
aI0
aI90
aI0
aI0
aI0
aI94
aI0
aI0
aI0
aI0
aI0
aI0
aI0
aI0
aI0
aI0
aI0
aI0
aI0
aI0
aI0
aI0
aI0
aI0
aI0
aI0
aI0
aI0
aI0
aI0
aI0
aI0
aI0
aI0
aI0
aI0
aI0
aI0
aI0
aI0
aI0
aI0
aI0
aI0
aI0
aI0
aI0
aI0
aI0
aI42
aI0
aI0
aI0
aI0
aI0
aI0
aI0
aI0
aI0
aI0
aI0
aI0
aI0
aI0
aI0
aI5
aI0
aI0
aI0
aI45
aI0
aI0
aI0
aI0
aI0
aI0
aI0
aI0
aI0
aI0
aI0
aI0
aI0
aI0
aI0
aI0
aI0
aI0
aI0
aI0
aI0
aI0
aI0
aa(lp26
F14.609813800963765
aF389.2428374032254
aF37.16295147322859
aF1527.2846285571052
aF17384.659835802002
aF1056.0993031779979
aF200476.12231935989
aF200476.12231935989
aF200476.12231935989
aF200476.12231935989
aF200476.12231935989
aF200476.12231935989
aF200476.12231935989
aF200476.12231935989
aF200476.12231935989
aF200476.12231935989
aI1
aI4
aI0
aI0
aI2
aI3
aI2
aI1
aI1
aI1
aI0
aI1
aI0
aI3
aI0
aI1
aI1
aI1
aI3
aI2
aI6
aI0
aI0
aI3
aI3
aI0
aI0
aI2
aI4
aI31
aI94
aI14
aI3
aI9
aI11
aI1
aI2
aI0
aI0
aI2
aI0
aI0
aI0
aI4
aI0
aI53
aI125
aI6
aI0
aI1
aI4
aI1
aI2
aI1
aI0
aI3
aI0
aI1
aI0
aI1
aI0
aI0
aI0
aI0
aI0
aI0
aI0
aI0
aI0
aI0
aI0
aI0
aI0
aI0
aI0
aI0
aI0
aI0
aI0
aI0
aI4
aI39
aI8
aI0
aI1
aI0
aI0
aI0
aI3
aI0
aI0
aI0
aI0
aI2
aI6
aI3
aI2
aI6
aI5
aI2
aI0
aI0
aI0
aI0
aI1
aI0
aI0
aI0
aI0
aI0
aI0
aI4
aI0
aI1
aI1
aI1
aI0
aI0
aI0
aI0
aI0
aI0
aI0
aI0
aI0
aI1
aI0
aI0
aI0
aI0
aI0
aI0
aI0
aI0
aI0
aI0
aI0
aI0
aI0
aI0
aI0
aI0
aI0
aI0
aI0
aI0
aI0
aI0
aI0
aI0
aI0
aI0
aI0
aI0
aI0
aI0
aI0
aI0
aI0
aI0
aI0
aI0
aI0
aI32
aI0
aI0
aI0
aI58
aI0
aI0
aI0
aI0
aI0
aI0
aI0
aI0
aI0
aI0
aI0
aI0
aI0
aI0
aI0
aI0
aI0
aI0
aI0
aI0
aI0
aI0
aI0
aI0
aI0
aI0
aI0
aI0
aI0
aI0
aI0
aI0
aI0
aI0
aI0
aI0
aI0
aI0
aI0
aI0
aI0
aI0
aI0
aI0
aI88
aI0
aI0
aI45
aI92
aI0
aI0
aI9
aI0
aI0
aI0
aI0
aI0
aI0
aI0
aI0
aI92
aI0
aI0
aI0
aI88
aI0
aI0
aI0
aI0
aI0
aI0
aI0
aI0
aI0
aI0
aI0
aI0
aI0
aI0
aI0
aI0
aI0
aI0
aI0
aI0
aI0
aI0
aI0
aI0
aI0
aI0
aI0
aI0
aI0
aI0
aI0
aI0
aI0
aI0
aI0
aI0
aI0
aI0
aI0
aI0
aI0
aI0
aI0
aI41
aI0
aI0
aI0
aI0
aI0
aI0
aI0
aI0
aI0
aI0
aI0
aI0
aI0
aI0
aI0
aI6
aI0
aI0
aI0
aI43
aI0
aI0
aI0
aI0
aI0
aI0
aI0
aI0
aI0
aI0
aI0
aI0
aI0
aI0
aI0
aI0
aI0
aI0
aI0
aI0
aI0
aI0
aI0
aa(lp27
F24.169994413298088
aF447.65466412353356
aF33.649380770640064
aF2024.72620552535
aF16804.949920291023
aF1209.8047198268578
aF206222.68838342145
aF206222.68838342145
aF206222.68838342145
aF206222.68838342145
aF206222.68838342145
aF206222.68838342145
aF206222.68838342145
aF206222.68838342145
aF206222.68838342145
aF206222.68838342145
aI3
aI1
aI2
aI0
aI3
aI1
aI0
aI0
aI3
aI4
aI0
aI0
aI0
aI0
aI4
aI0
aI5
aI6
aI1
aI1
aI3
aI0
aI0
aI1
aI1
aI0
aI0
aI2
aI4
aI17
aI75
aI10
aI0
aI1
aI0
aI0
aI2
aI0
aI0
aI1
aI0
aI0
aI0
aI1
aI1
aI108
aI130
aI2
aI0
aI0
aI0
aI0
aI1
aI0
aI1
aI1
aI0
aI0
aI0
aI0
aI0
aI0
aI1
aI0
aI0
aI0
aI0
aI0
aI0
aI0
aI0
aI0
aI0
aI0
aI0
aI0
aI0
aI0
aI0
aI0
aI2
aI33
aI16
aI0
aI1
aI0
aI0
aI0
aI1
aI0
aI0
aI0
aI0
aI0
aI0
aI0
aI1
aI9
aI7
aI0
aI1
aI0
aI0
aI0
aI0
aI0
aI0
aI0
aI0
aI1
aI0
aI5
aI0
aI0
aI2
aI0
aI1
aI0
aI0
aI0
aI0
aI0
aI0
aI2
aI0
aI0
aI2
aI2
aI0
aI0
aI0
aI0
aI0
aI0
aI0
aI0
aI0
aI0
aI0
aI0
aI0
aI0
aI0
aI0
aI0
aI0
aI0
aI0
aI0
aI0
aI0
aI0
aI0
aI0
aI0
aI0
aI0
aI0
aI0
aI0
aI0
aI0
aI0
aI19
aI0
aI0
aI0
aI67
aI0
aI0
aI0
aI0
aI0
aI0
aI0
aI0
aI0
aI0
aI0
aI0
aI0
aI0
aI0
aI0
aI0
aI0
aI0
aI0
aI0
aI0
aI0
aI0
aI0
aI0
aI0
aI0
aI0
aI0
aI0
aI0
aI0
aI0
aI0
aI0
aI0
aI0
aI0
aI0
aI0
aI0
aI0
aI0
aI81
aI0
aI0
aI42
aI63
aI0
aI0
aI11
aI0
aI0
aI0
aI0
aI0
aI0
aI0
aI0
aI84
aI0
aI0
aI0
aI116
aI0
aI0
aI0
aI0
aI0
aI0
aI0
aI0
aI0
aI0
aI0
aI0
aI0
aI0
aI0
aI0
aI0
aI0
aI0
aI0
aI0
aI0
aI0
aI0
aI0
aI0
aI0
aI0
aI0
aI0
aI0
aI0
aI0
aI0
aI0
aI0
aI0
aI0
aI0
aI0
aI0
aI0
aI0
aI38
aI0
aI0
aI0
aI0
aI0
aI0
aI0
aI0
aI0
aI0
aI0
aI0
aI0
aI0
aI0
aI6
aI0
aI0
aI0
aI42
aI0
aI0
aI0
aI0
aI0
aI0
aI0
aI0
aI0
aI0
aI0
aI0
aI0
aI0
aI0
aI0
aI0
aI0
aI0
aI0
aI0
aI0
aI0
aa(lp28
F12.732821950037142
aF379.91350522235683
aF15.367391821247109
aF1852.539930528175
aF12664.974500270533
aF1178.4613063373733
aF244637.70647577863
aF244637.70647577863
aF244637.70647577863
aF244637.70647577863
aF244637.70647577863
aF244637.70647577863
aF244637.70647577863
aF244637.70647577863
aF244637.70647577863
aF244637.70647577863
aI0
aI0
aI0
aI0
aI0
aI2
aI2
aI1
aI2
aI9
aI1
aI0
aI1
aI19
aI3
aI0
aI0
aI0
aI0
aI0
aI0
aI0
aI0
aI0
aI0
aI0
aI0
aI0
aI1
aI48
aI69
aI1
aI0
aI0
aI0
aI0
aI0
aI0
aI0
aI0
aI0
aI0
aI0
aI1
aI0
aI99
aI155
aI1
aI0
aI0
aI0
aI0
aI0
aI0
aI0
aI0
aI0
aI0
aI0
aI0
aI0
aI0
aI0
aI0
aI0
aI0
aI0
aI0
aI0
aI0
aI0
aI0
aI0
aI0
aI0
aI0
aI0
aI0
aI0
aI0
aI1
aI33
aI19
aI0
aI1
aI0
aI0
aI0
aI0
aI0
aI0
aI0
aI0
aI0
aI0
aI0
aI0
aI17
aI7
aI1
aI1
aI0
aI0
aI0
aI0
aI0
aI0
aI0
aI0
aI0
aI0
aI0
aI0
aI7
aI1
aI0
aI0
aI0
aI0
aI0
aI0
aI0
aI0
aI0
aI0
aI0
aI0
aI0
aI0
aI0
aI0
aI0
aI0
aI0
aI0
aI0
aI0
aI0
aI0
aI0
aI0
aI0
aI0
aI0
aI0
aI0
aI0
aI0
aI0
aI0
aI0
aI0
aI0
aI0
aI0
aI0
aI0
aI0
aI0
aI0
aI0
aI0
aI0
aI0
aI0
aI0
aI0
aI88
aI0
aI0
aI0
aI0
aI0
aI0
aI0
aI0
aI0
aI0
aI0
aI0
aI0
aI0
aI0
aI0
aI0
aI0
aI0
aI0
aI0
aI0
aI0
aI0
aI0
aI0
aI0
aI0
aI0
aI0
aI0
aI0
aI0
aI0
aI0
aI0
aI0
aI0
aI0
aI0
aI0
aI0
aI0
aI0
aI80
aI0
aI0
aI42
aI96
aI0
aI0
aI21
aI0
aI0
aI0
aI0
aI0
aI0
aI0
aI0
aI85
aI0
aI0
aI0
aI91
aI0
aI0
aI0
aI0
aI0
aI0
aI0
aI0
aI0
aI0
aI0
aI0
aI0
aI0
aI0
aI0
aI0
aI0
aI0
aI0
aI0
aI0
aI0
aI0
aI0
aI0
aI0
aI0
aI0
aI0
aI0
aI0
aI0
aI0
aI0
aI0
aI0
aI0
aI0
aI0
aI0
aI0
aI0
aI40
aI0
aI0
aI0
aI0
aI0
aI0
aI0
aI0
aI0
aI0
aI0
aI0
aI0
aI0
aI0
aI3
aI0
aI0
aI0
aI45
aI0
aI0
aI0
aI0
aI0
aI0
aI0
aI0
aI0
aI0
aI0
aI0
aI0
aI0
aI0
aI0
aI0
aI0
aI0
aI0
aI0
aI0
aI0
aa(lp29
F19.76451531988633
aF370.0414646949965
aF44.10109186748267
aF1744.2098296740362
aF16442.533580999927
aF1082.0798577721678
aF210890.8198223983
aF210890.8198223983
aF210890.8198223983
aF210890.8198223983
aF210890.8198223983
aF210890.8198223983
aF210890.8198223983
aF210890.8198223983
aF210890.8198223983
aF210890.8198223983
aI0
aI2
aI0
aI0
aI0
aI0
aI2
aI0
aI3
aI0
aI0
aI0
aI0
aI1
aI1
aI0
aI1
aI0
aI1
aI2
aI0
aI0
aI0
aI1
aI1
aI0
aI0
aI3
aI4
aI29
aI30
aI2
aI2
aI1
aI1
aI0
aI0
aI0
aI0
aI1
aI0
aI0
aI0
aI4
aI1
aI45
aI235
aI9
aI0
aI2
aI4
aI0
aI0
aI3
aI5
aI2
aI0
aI1
aI3
aI3
aI0
aI2
aI5
aI0
aI0
aI3
aI0
aI0
aI0
aI1
aI0
aI0
aI0
aI3
aI0
aI0
aI0
aI0
aI0
aI0
aI7
aI40
aI8
aI0
aI1
aI0
aI0
aI0
aI0
aI0
aI0
aI0
aI0
aI0
aI0
aI0
aI3
aI12
aI9
aI1
aI1
aI0
aI0
aI0
aI0
aI0
aI0
aI0
aI0
aI0
aI0
aI0
aI0
aI0
aI0
aI0
aI0
aI0
aI0
aI0
aI0
aI0
aI0
aI0
aI0
aI0
aI0
aI0
aI0
aI0
aI0
aI0
aI0
aI0
aI0
aI0
aI0
aI0
aI0
aI0
aI0
aI0
aI0
aI0
aI0
aI0
aI0
aI0
aI0
aI0
aI0
aI0
aI0
aI0
aI0
aI0
aI0
aI0
aI0
aI0
aI0
aI0
aI0
aI28
aI0
aI0
aI0
aI61
aI0
aI0
aI0
aI0
aI0
aI0
aI0
aI0
aI0
aI0
aI0
aI0
aI0
aI0
aI0
aI0
aI0
aI0
aI0
aI0
aI0
aI0
aI0
aI0
aI0
aI0
aI0
aI0
aI0
aI0
aI0
aI0
aI0
aI0
aI0
aI0
aI0
aI0
aI0
aI0
aI0
aI0
aI0
aI0
aI76
aI0
aI0
aI40
aI76
aI0
aI0
aI16
aI0
aI0
aI0
aI0
aI0
aI0
aI0
aI0
aI82
aI0
aI0
aI0
aI122
aI0
aI0
aI0
aI0
aI0
aI0
aI0
aI0
aI0
aI0
aI0
aI0
aI0
aI0
aI0
aI0
aI0
aI0
aI0
aI0
aI0
aI0
aI0
aI0
aI0
aI0
aI0
aI0
aI0
aI0
aI0
aI0
aI0
aI0
aI0
aI0
aI0
aI0
aI0
aI0
aI0
aI0
aI0
aI38
aI0
aI0
aI0
aI0
aI0
aI0
aI0
aI0
aI0
aI0
aI0
aI0
aI0
aI0
aI0
aI4
aI0
aI0
aI0
aI47
aI0
aI0
aI0
aI0
aI0
aI0
aI0
aI0
aI0
aI0
aI0
aI0
aI0
aI0
aI0
aI0
aI0
aI0
aI0
aI0
aI0
aI0
aI0
aa(lp30
F29.12570598841351
aF418.6162477297206
aF37.402903606478446
aF1983.026599719488
aF18057.475685418794
aF1143.5394868895473
aF150697.29265817686
aF150697.29265817686
aF150697.29265817686
aF150697.29265817686
aF150697.29265817686
aF150697.29265817686
aF150697.29265817686
aF150697.29265817686
aF150697.29265817686
aF150697.29265817686
aI0
aI0
aI3
aI0
aI2
aI0
aI3
aI2
aI1
aI1
aI4
aI1
aI0
aI1
aI2
aI0
aI2
aI4
aI5
aI3
aI1
aI0
aI0
aI1
aI3
aI0
aI0
aI3
aI3
aI20
aI54
aI11
aI0
aI0
aI0
aI0
aI0
aI0
aI0
aI0
aI0
aI0
aI0
aI0
aI2
aI95
aI201
aI0
aI0
aI0
aI0
aI0
aI0
aI0
aI0
aI0
aI1
aI1
aI0
aI4
aI1
aI0
aI0
aI0
aI0
aI0
aI2
aI0
aI0
aI0
aI0
aI0
aI1
aI0
aI0
aI0
aI0
aI0
aI0
aI0
aI2
aI46
aI11
aI0
aI2
aI0
aI0
aI2
aI3
aI0
aI0
aI0
aI2
aI0
aI0
aI0
aI0
aI3
aI8
aI3
aI1
aI0
aI0
aI2
aI0
aI0
aI0
aI0
aI2
aI0
aI1
aI0
aI0
aI1
aI1
aI0
aI2
aI1
aI0
aI0
aI0
aI1
aI1
aI0
aI0
aI0
aI0
aI0
aI0
aI0
aI0
aI0
aI0
aI0
aI0
aI0
aI0
aI0
aI0
aI0
aI0
aI0
aI0
aI0
aI0
aI0
aI0
aI0
aI0
aI0
aI0
aI0
aI0
aI0
aI0
aI0
aI0
aI0
aI0
aI0
aI0
aI0
aI0
aI34
aI0
aI0
aI0
aI64
aI0
aI0
aI0
aI0
aI0
aI0
aI0
aI0
aI0
aI0
aI0
aI0
aI0
aI0
aI0
aI0
aI0
aI0
aI0
aI0
aI0
aI0
aI0
aI0
aI0
aI0
aI0
aI0
aI0
aI0
aI0
aI0
aI0
aI0
aI0
aI0
aI0
aI0
aI0
aI0
aI0
aI0
aI0
aI0
aI87
aI0
aI0
aI48
aI51
aI0
aI0
aI21
aI0
aI0
aI0
aI0
aI0
aI0
aI0
aI0
aI80
aI0
aI0
aI0
aI148
aI0
aI0
aI0
aI0
aI0
aI0
aI0
aI0
aI0
aI0
aI0
aI0
aI0
aI0
aI0
aI0
aI0
aI0
aI0
aI0
aI0
aI0
aI0
aI0
aI0
aI0
aI0
aI0
aI0
aI0
aI0
aI0
aI0
aI0
aI0
aI0
aI0
aI0
aI0
aI0
aI0
aI0
aI0
aI43
aI0
aI0
aI0
aI0
aI0
aI0
aI0
aI0
aI0
aI0
aI0
aI0
aI0
aI0
aI0
aI6
aI0
aI0
aI0
aI49
aI0
aI0
aI0
aI0
aI0
aI0
aI0
aI0
aI0
aI0
aI0
aI0
aI0
aI0
aI0
aI0
aI0
aI0
aI0
aI0
aI0
aI0
aI0
aa(lp31
F16.993522954659344
aF369.27630266438666
aF33.340769402922966
aF1714.8757029465714
aF16463.87521285155
aF1004.7046394059947
aF204574.30261410936
aF204574.30261410936
aF204574.30261410936
aF204574.30261410936
aF204574.30261410936
aF204574.30261410936
aF204574.30261410936
aF204574.30261410936
aF204574.30261410936
aF204574.30261410936
aI0
aI0
aI0
aI0
aI0
aI0
aI0
aI0
aI0
aI0
aI0
aI0
aI0
aI4
aI4
aI0
aI1
aI0
aI0
aI0
aI3
aI0
aI0
aI0
aI7
aI0
aI0
aI0
aI3
aI56
aI120
aI0
aI5
aI6
aI2
aI7
aI3
aI0
aI0
aI2
aI4
aI0
aI0
aI1
aI6
aI39
aI187
aI9
aI0
aI1
aI0
aI0
aI1
aI0
aI0
aI0
aI0
aI0
aI0
aI4
aI0
aI0
aI0
aI0
aI0
aI0
aI0
aI0
aI1
aI0
aI0
aI0
aI0
aI0
aI0
aI0
aI0
aI0
aI0
aI0
aI3
aI37
aI11
aI0
aI1
aI0
aI0
aI0
aI3
aI0
aI0
aI0
aI1
aI2
aI0
aI0
aI4
aI26
aI5
aI6
aI0
aI0
aI0
aI1
aI0
aI0
aI0
aI0
aI0
aI1
aI0
aI1
aI0
aI0
aI0
aI0
aI0
aI0
aI0
aI0
aI0
aI0
aI0
aI0
aI0
aI0
aI0
aI0
aI0
aI0
aI0
aI0
aI0
aI0
aI0
aI0
aI0
aI0
aI0
aI0
aI0
aI0
aI0
aI0
aI0
aI0
aI0
aI0
aI0
aI0
aI0
aI0
aI0
aI0
aI0
aI0
aI0
aI0
aI0
aI0
aI0
aI0
aI0
aI35
aI0
aI0
aI0
aI68
aI0
aI0
aI0
aI0
aI0
aI0
aI0
aI0
aI0
aI0
aI0
aI0
aI0
aI0
aI0
aI0
aI0
aI0
aI0
aI0
aI0
aI0
aI0
aI0
aI0
aI0
aI0
aI0
aI0
aI0
aI0
aI0
aI0
aI0
aI0
aI0
aI0
aI0
aI0
aI0
aI0
aI0
aI0
aI0
aI90
aI0
aI0
aI47
aI110
aI0
aI0
aI16
aI0
aI0
aI0
aI0
aI0
aI0
aI0
aI0
aI96
aI0
aI0
aI0
aI116
aI0
aI0
aI0
aI0
aI0
aI0
aI0
aI0
aI0
aI0
aI0
aI0
aI0
aI0
aI0
aI0
aI0
aI0
aI0
aI0
aI0
aI0
aI0
aI0
aI0
aI0
aI0
aI0
aI0
aI0
aI0
aI0
aI0
aI0
aI0
aI0
aI0
aI0
aI0
aI0
aI0
aI0
aI0
aI46
aI0
aI0
aI0
aI0
aI0
aI0
aI0
aI0
aI0
aI0
aI0
aI0
aI0
aI0
aI0
aI3
aI0
aI0
aI0
aI54
aI0
aI0
aI0
aI0
aI0
aI0
aI0
aI0
aI0
aI0
aI0
aI0
aI0
aI0
aI0
aI0
aI0
aI0
aI0
aI0
aI0
aI0
aI0
aa(lp32
F13.124426444061775
aF381.79011298790243
aF7.347879381456521
aF1774.7073126109476
aF18417.059029653767
aF1026.5583359074856
aF83648.81359138513
aF83648.81359138513
aF83648.81359138513
aF83648.81359138513
aF83648.81359138513
aF83648.81359138513
aF83648.81359138513
aF83648.81359138513
aF83648.81359138513
aF83648.81359138513
aI0
aI0
aI0
aI0
aI1
aI1
aI0
aI2
aI0
aI4
aI0
aI0
aI0
aI0
aI0
aI0
aI17
aI5
aI2
aI1
aI24
aI0
aI0
aI0
aI6
aI0
aI0
aI0
aI5
aI17
aI21
aI0
aI3
aI5
aI4
aI0
aI4
aI0
aI0
aI2
aI0
aI0
aI0
aI4
aI5
aI110
aI207
aI9
aI0
aI0
aI0
aI0
aI0
aI0
aI0
aI3
aI0
aI0
aI0
aI1
aI0
aI1
aI2
aI0
aI0
aI0
aI0
aI0
aI0
aI0
aI0
aI0
aI0
aI0
aI0
aI0
aI0
aI0
aI0
aI0
aI2
aI51
aI5
aI1
aI5
aI0
aI0
aI2
aI1
aI0
aI0
aI1
aI2
aI1
aI0
aI0
aI0
aI1
aI15
aI4
aI3
aI0
aI0
aI4
aI0
aI0
aI0
aI5
aI0
aI5
aI3
aI0
aI0
aI0
aI0
aI0
aI0
aI0
aI0
aI0
aI1
aI0
aI0
aI0
aI0
aI1
aI0
aI0
aI0
aI0
aI0
aI0
aI0
aI0
aI0
aI0
aI0
aI0
aI0
aI0
aI0
aI0
aI0
aI0
aI0
aI0
aI0
aI0
aI0
aI0
aI0
aI0
aI0
aI0
aI0
aI0
aI0
aI0
aI0
aI0
aI0
aI0
aI0
aI33
aI0
aI0
aI0
aI80
aI0
aI0
aI0
aI0
aI0
aI0
aI0
aI0
aI0
aI0
aI0
aI0
aI0
aI0
aI0
aI0
aI0
aI0
aI0
aI0
aI0
aI0
aI0
aI0
aI0
aI0
aI0
aI0
aI0
aI0
aI0
aI0
aI0
aI0
aI0
aI0
aI0
aI0
aI0
aI0
aI0
aI0
aI0
aI0
aI80
aI0
aI0
aI55
aI116
aI0
aI0
aI7
aI0
aI0
aI0
aI0
aI0
aI0
aI0
aI0
aI97
aI0
aI0
aI0
aI111
aI0
aI0
aI0
aI0
aI0
aI0
aI0
aI0
aI0
aI0
aI0
aI0
aI0
aI0
aI0
aI0
aI0
aI0
aI0
aI0
aI0
aI0
aI0
aI0
aI0
aI0
aI0
aI0
aI0
aI0
aI0
aI0
aI0
aI0
aI0
aI0
aI0
aI0
aI0
aI0
aI0
aI0
aI0
aI53
aI0
aI0
aI0
aI0
aI0
aI0
aI0
aI0
aI0
aI0
aI0
aI0
aI0
aI0
aI0
aI4
aI0
aI0
aI0
aI56
aI0
aI0
aI0
aI0
aI0
aI0
aI0
aI0
aI0
aI0
aI0
aI0
aI0
aI0
aI0
aI0
aI0
aI0
aI0
aI0
aI0
aI0
aI0
aa(lp33
F22.461844789993478
aF412.70836682372857
aF-3.4286753354022483
aF1742.4925503840009
aF12799.945773744268
aF1159.9336822331363
aF218342.56693844145
aF218342.56693844145
aF218342.56693844145
aF218342.56693844145
aF218342.56693844145
aF218342.56693844145
aF218342.56693844145
aF218342.56693844145
aF218342.56693844145
aF218342.56693844145
aI0
aI0
aI0
aI0
aI0
aI0
aI0
aI0
aI2
aI0
aI0
aI0
aI0
aI4
aI0
aI0
aI1
aI0
aI0
aI0
aI1
aI0
aI0
aI0
aI0
aI0
aI0
aI0
aI9
aI33
aI46
aI1
aI5
aI0
aI1
aI0
aI0
aI0
aI0
aI0
aI1
aI0
aI0
aI0
aI10
aI127
aI111
aI1
aI1
aI0
aI1
aI0
aI0
aI0
aI0
aI0
aI0
aI0
aI1
aI1
aI0
aI1
aI0
aI0
aI0
aI0
aI0
aI0
aI0
aI0
aI0
aI0
aI0
aI0
aI0
aI0
aI0
aI2
aI0
aI0
aI1
aI17
aI31
aI0
aI0
aI0
aI0
aI0
aI1
aI0
aI0
aI4
aI0
aI0
aI0
aI2
aI1
aI7
aI8
aI1
aI0
aI0
aI0
aI1
aI1
aI0
aI0
aI0
aI0
aI0
aI0
aI0
aI0
aI0
aI0
aI0
aI0
aI0
aI0
aI0
aI0
aI0
aI0
aI0
aI0
aI0
aI0
aI0
aI0
aI0
aI0
aI0
aI0
aI0
aI0
aI0
aI0
aI0
aI0
aI0
aI0
aI0
aI0
aI0
aI0
aI0
aI0
aI0
aI0
aI0
aI0
aI0
aI0
aI0
aI0
aI0
aI0
aI0
aI0
aI0
aI0
aI0
aI0
aI3
aI0
aI0
aI0
aI74
aI0
aI0
aI0
aI0
aI0
aI0
aI0
aI0
aI0
aI0
aI0
aI0
aI0
aI0
aI0
aI0
aI0
aI0
aI0
aI0
aI0
aI0
aI0
aI0
aI0
aI0
aI0
aI0
aI0
aI0
aI0
aI0
aI0
aI0
aI0
aI0
aI0
aI0
aI0
aI0
aI0
aI0
aI0
aI0
aI70
aI0
aI0
aI35
aI66
aI0
aI0
aI15
aI0
aI0
aI0
aI0
aI0
aI0
aI0
aI0
aI75
aI0
aI0
aI0
aI97
aI0
aI0
aI0
aI0
aI0
aI0
aI0
aI0
aI0
aI0
aI0
aI0
aI0
aI0
aI0
aI0
aI0
aI0
aI0
aI0
aI0
aI0
aI0
aI0
aI0
aI0
aI0
aI0
aI0
aI0
aI0
aI0
aI0
aI0
aI0
aI0
aI0
aI0
aI0
aI0
aI0
aI0
aI0
aI31
aI0
aI0
aI0
aI0
aI0
aI0
aI0
aI0
aI0
aI0
aI0
aI0
aI0
aI0
aI0
aI7
aI0
aI0
aI0
aI39
aI0
aI0
aI0
aI0
aI0
aI0
aI0
aI0
aI0
aI0
aI0
aI0
aI0
aI0
aI0
aI0
aI0
aI0
aI0
aI0
aI0
aI0
aI0
aa(lp34
F16.28836548194954
aF412.25072828615737
aF21.791592727083053
aF1639.132617641753
aF15297.769925490484
aF958.1193544974645
aF331098.1728194251
aF331098.1728194251
aF331098.1728194251
aF331098.1728194251
aF331098.1728194251
aF331098.1728194251
aF331098.1728194251
aF331098.1728194251
aF331098.1728194251
aF331098.1728194251
aI0
aI0
aI0
aI0
aI0
aI0
aI0
aI0
aI0
aI0
aI0
aI0
aI0
aI0
aI0
aI0
aI0
aI0
aI0
aI0
aI1
aI0
aI0
aI0
aI0
aI0
aI0
aI0
aI0
aI8
aI107
aI15
aI0
aI4
aI26
aI0
aI0
aI0
aI0
aI0
aI0
aI0
aI0
aI0
aI0
aI134
aI102
aI3
aI1
aI4
aI7
aI1
aI0
aI2
aI6
aI0
aI0
aI1
aI3
aI0
aI0
aI1
aI5
aI0
aI0
aI0
aI0
aI0
aI0
aI0
aI0
aI0
aI2
aI0
aI0
aI0
aI1
aI0
aI1
aI0
aI3
aI17
aI31
aI1
aI3
aI0
aI0
aI0
aI0
aI0
aI0
aI0
aI1
aI3
aI0
aI1
aI3
aI10
aI10
aI0
aI1
aI0
aI0
aI0
aI0
aI0
aI0
aI0
aI0
aI0
aI0
aI0
aI0
aI0
aI0
aI0
aI0
aI0
aI0
aI0
aI0
aI0
aI0
aI0
aI0
aI0
aI0
aI0
aI0
aI0
aI0
aI0
aI0
aI0
aI0
aI0
aI0
aI0
aI0
aI0
aI0
aI0
aI0
aI0
aI0
aI0
aI0
aI0
aI0
aI0
aI0
aI0
aI0
aI0
aI0
aI0
aI0
aI0
aI0
aI0
aI0
aI0
aI0
aI24
aI0
aI0
aI0
aI64
aI0
aI0
aI0
aI0
aI0
aI0
aI0
aI0
aI0
aI0
aI0
aI0
aI0
aI0
aI0
aI0
aI0
aI0
aI0
aI0
aI0
aI0
aI0
aI0
aI0
aI0
aI0
aI0
aI0
aI0
aI0
aI0
aI0
aI0
aI0
aI0
aI0
aI0
aI0
aI0
aI2
aI1
aI1
aI21
aI97
aI0
aI0
aI0
aI104
aI0
aI0
aI11
aI2
aI1
aI1
aI3
aI0
aI0
aI0
aI0
aI85
aI0
aI0
aI0
aI102
aI0
aI0
aI0
aI0
aI0
aI0
aI0
aI0
aI0
aI0
aI0
aI0
aI0
aI0
aI0
aI0
aI0
aI0
aI0
aI0
aI0
aI0
aI0
aI0
aI0
aI0
aI0
aI0
aI0
aI0
aI0
aI0
aI0
aI0
aI0
aI0
aI0
aI0
aI0
aI6
aI27
aI0
aI0
aI0
aI0
aI0
aI0
aI0
aI0
aI0
aI0
aI0
aI0
aI0
aI0
aI0
aI7
aI2
aI0
aI0
aI0
aI0
aI0
aI0
aI0
aI0
aI0
aI30
aI13
aI1
aI0
aI0
aI0
aI0
aI0
aI0
aI0
aI0
aI1
aI0
aI0
aI0
aI0
aI0
aI0
aI1
aI0
aa(lp35
F34.650147931810416
aF387.8481072522019
aF21.745398818725715
aF1818.3177537708898
aF15807.987794354083
aF989.4228389342967
aF353598.3527634115
aF353598.3527634115
aF353598.3527634115
aF353598.3527634115
aF353598.3527634115
aF353598.3527634115
aF353598.3527634115
aF353598.3527634115
aF353598.3527634115
aF353598.3527634115
aI0
aI2
aI0
aI0
aI0
aI0
aI0
aI1
aI0
aI1
aI0
aI0
aI0
aI0
aI0
aI0
aI0
aI7
aI22
aI3
aI1
aI0
aI0
aI0
aI0
aI0
aI0
aI2
aI0
aI8
aI75
aI8
aI1
aI3
aI19
aI12
aI0
aI0
aI0
aI2
aI0
aI0
aI0
aI0
aI0
aI156
aI149
aI3
aI0
aI0
aI1
aI1
aI0
aI0
aI0
aI0
aI0
aI1
aI0
aI0
aI0
aI0
aI0
aI1
aI0
aI0
aI0
aI0
aI0
aI0
aI0
aI0
aI0
aI0
aI0
aI0
aI0
aI1
aI0
aI0
aI3
aI31
aI28
aI0
aI0
aI0
aI0
aI0
aI0
aI0
aI0
aI0
aI0
aI0
aI0
aI0
aI3
aI5
aI8
aI0
aI0
aI0
aI0
aI0
aI1
aI0
aI0
aI0
aI0
aI1
aI14
aI2
aI0
aI0
aI0
aI0
aI0
aI0
aI0
aI0
aI0
aI0
aI0
aI0
aI0
aI0
aI0
aI0
aI0
aI0
aI0
aI0
aI0
aI0
aI0
aI0
aI0
aI0
aI0
aI0
aI0
aI0
aI0
aI0
aI0
aI0
aI0
aI0
aI0
aI0
aI0
aI0
aI0
aI0
aI0
aI0
aI0
aI0
aI0
aI0
aI0
aI0
aI0
aI28
aI0
aI0
aI0
aI69
aI0
aI0
aI0
aI0
aI0
aI0
aI0
aI0
aI0
aI0
aI0
aI0
aI0
aI0
aI0
aI0
aI0
aI0
aI0
aI0
aI0
aI0
aI0
aI0
aI0
aI2
aI1
aI0
aI0
aI0
aI0
aI0
aI0
aI0
aI0
aI0
aI0
aI0
aI0
aI0
aI1
aI0
aI1
aI31
aI104
aI0
aI0
aI0
aI68
aI0
aI0
aI20
aI3
aI1
aI1
aI4
aI0
aI0
aI0
aI0
aI99
aI0
aI0
aI0
aI143
aI0
aI0
aI0
aI0
aI0
aI0
aI0
aI0
aI0
aI0
aI0
aI0
aI0
aI0
aI0
aI0
aI0
aI0
aI0
aI0
aI0
aI0
aI0
aI0
aI0
aI0
aI0
aI0
aI0
aI0
aI0
aI0
aI0
aI0
aI0
aI0
aI0
aI0
aI0
aI39
aI0
aI0
aI0
aI6
aI0
aI0
aI0
aI0
aI0
aI0
aI0
aI0
aI0
aI0
aI0
aI0
aI0
aI0
aI0
aI4
aI0
aI0
aI0
aI25
aI0
aI0
aI0
aI23
aI0
aI0
aI0
aI0
aI0
aI0
aI0
aI0
aI0
aI0
aI0
aI0
aI0
aI0
aI0
aI0
aI0
aI0
aI0
aa(lp36
F-7.94412176688113
aF-13.776930134305879
aF-9.961120282580401
aF1574.04208477888
aF660.1509519574983
aF1595.3307555648726
aF390625.0
aF390625.0
aF390625.0
aF390625.0
aF390625.0
aF390625.0
aF390625.0
aF390625.0
aF390625.0
aF390625.0
aI0
aI8
aI74
aI2
aI4
aI12
aI66
aI11
aI5
aI8
aI43
aI4
aI0
aI9
aI39
aI0
aI13
aI26
aI63
aI0
aI3
aI0
aI0
aI1
aI5
aI0
aI0
aI1
aI4
aI25
aI40
aI1
aI15
aI56
aI13
aI2
aI7
aI0
aI0
aI0
aI9
aI0
aI0
aI2
aI6
aI65
aI3
aI0
aI3
aI33
aI7
aI1
aI20
aI27
aI5
aI1
aI17
aI31
aI2
aI1
aI4
aI52
aI1
aI0
aI0
aI0
aI2
aI0
aI0
aI0
aI9
aI20
aI0
aI2
aI0
aI6
aI0
aI0
aI1
aI0
aI0
aI0
aI0
aI8
aI1
aI0
aI0
aI12
aI0
aI0
aI0
aI16
aI0
aI2
aI0
aI1
aI0
aI0
aI0
aI2
aI0
aI0
aI0
aI3
aI3
aI0
aI0
aI5
aI0
aI0
aI1
aI3
aI0
aI1
aI0
aI0
aI5
aI8
aI2
aI1
aI10
aI16
aI2
aI0
aI0
aI23
aI4
aI1
aI0
aI0
aI0
aI0
aI0
aI0
aI0
aI0
aI0
aI0
aI0
aI0
aI0
aI0
aI0
aI0
aI0
aI0
aI0
aI0
aI0
aI0
aI0
aI0
aI0
aI0
aI0
aI0
aI0
aI0
aI0
aI0
aI0
aI0
aI0
aI0
aI0
aI0
aI0
aI170
aI0
aI0
aI0
aI0
aI0
aI0
aI0
aI0
aI0
aI0
aI0
aI0
aI0
aI0
aI0
aI0
aI0
aI0
aI0
aI0
aI0
aI0
aI0
aI0
aI0
aI0
aI0
aI0
aI0
aI0
aI0
aI0
aI0
aI0
aI0
aI0
aI0
aI0
aI0
aI0
aI0
aI0
aI0
aI0
aI70
aI0
aI0
aI52
aI217
aI0
aI0
aI108
aI0
aI0
aI5
aI5
aI0
aI0
aI0
aI0
aI251
aI0
aI0
aI0
aI142
aI0
aI0
aI0
aI0
aI0
aI0
aI0
aI0
aI0
aI0
aI0
aI0
aI0
aI0
aI0
aI0
aI0
aI0
aI0
aI0
aI0
aI0
aI0
aI0
aI0
aI0
aI0
aI0
aI0
aI0
aI0
aI0
aI0
aI0
aI0
aI0
aI0
aI0
aI0
aI0
aI0
aI0
aI0
aI52
aI0
aI0
aI0
aI39
aI0
aI0
aI0
aI0
aI0
aI0
aI0
aI0
aI0
aI0
aI0
aI0
aI0
aI0
aI0
aI79
aI0
aI0
aI0
aI0
aI0
aI0
aI0
aI0
aI0
aI0
aI0
aI0
aI0
aI0
aI0
aI0
aI0
aI0
aI0
aI0
aI0
aI0
aI0
aa(lp37
F-1.1380267415632277
aF-14.314392321975077
aF-3.1298981953849214
aF1566.0364552443034
aF638.01440355863
aF1378.069168462367
aF236578.10382447785
aF236578.10382447785
aF236578.10382447785
aF236578.10382447785
aF236578.10382447785
aF236578.10382447785
aF236578.10382447785
aF236578.10382447785
aF236578.10382447785
aF236578.10382447785
aI0
aI10
aI66
aI0
aI3
aI7
aI29
aI7
aI2
aI6
aI32
aI3
aI0
aI8
aI26
aI2
aI1
aI6
aI92
aI9
aI1
aI0
aI0
aI4
aI3
aI0
aI0
aI7
aI2
aI36
aI23
aI12
aI0
aI31
aI33
aI2
aI3
aI0
aI0
aI1
aI2
aI0
aI0
aI0
aI6
aI59
aI6
aI2
aI1
aI26
aI7
aI0
aI4
aI34
aI4
aI0
aI5
aI52
aI6
aI1
aI3
aI56
aI1
aI0
aI0
aI1
aI13
aI3
aI2
aI0
aI14
aI10
aI0
aI0
aI2
aI10
aI0
aI1
aI1
aI3
aI0
aI1
aI4
aI2
aI1
aI0
aI0
aI2
aI0
aI0
aI0
aI3
aI1
aI0
aI0
aI1
aI7
aI1
aI4
aI1
aI2
aI0
aI0
aI0
aI1
aI0
aI0
aI0
aI3
aI2
aI5
aI0
aI2
aI0
aI1
aI0
aI12
aI1
aI2
aI0
aI5
aI5
aI3
aI0
aI2
aI10
aI14
aI0
aI0
aI0
aI0
aI0
aI0
aI0
aI0
aI0
aI0
aI0
aI0
aI0
aI0
aI0
aI0
aI0
aI0
aI0
aI0
aI0
aI0
aI0
aI0
aI0
aI0
aI0
aI0
aI0
aI0
aI0
aI0
aI0
aI0
aI0
aI0
aI0
aI0
aI0
aI0
aI126
aI0
aI0
aI0
aI32
aI0
aI0
aI0
aI0
aI0
aI0
aI0
aI0
aI0
aI0
aI0
aI0
aI0
aI0
aI0
aI0
aI0
aI0
aI0
aI0
aI0
aI0
aI0
aI0
aI0
aI0
aI0
aI0
aI0
aI2
aI0
aI2
aI0
aI0
aI0
aI0
aI0
aI0
aI0
aI0
aI83
aI0
aI0
aI76
aI204
aI0
aI0
aI33
aI5
aI3
aI1
aI3
aI0
aI0
aI0
aI0
aI196
aI0
aI0
aI0
aI134
aI0
aI0
aI0
aI0
aI0
aI0
aI0
aI0
aI0
aI0
aI0
aI0
aI0
aI0
aI0
aI0
aI0
aI0
aI0
aI0
aI0
aI0
aI0
aI0
aI0
aI0
aI0
aI0
aI0
aI0
aI0
aI0
aI0
aI0
aI0
aI0
aI0
aI0
aI0
aI0
aI0
aI0
aI0
aI46
aI0
aI0
aI0
aI38
aI0
aI0
aI0
aI0
aI0
aI0
aI0
aI0
aI0
aI0
aI0
aI10
aI0
aI0
aI0
aI34
aI0
aI0
aI23
aI3
aI1
aI1
aI1
aI0
aI0
aI0
aI0
aI0
aI0
aI0
aI0
aI0
aI0
aI0
aI0
aI0
aI0
aI0
aI1
aa(lp38
F-9.904234895461917
aF-6.789112727642056
aF-2.2043638783433015
aF1695.8379735550764
aF525.9863538224088
aF1227.1942274323178
aF312726.738722762
aF312726.738722762
aF312726.738722762
aF312726.738722762
aF312726.738722762
aF312726.738722762
aF312726.738722762
aF312726.738722762
aF312726.738722762
aF312726.738722762
aI4
aI10
aI53
aI0
aI0
aI8
aI39
aI5
aI6
aI18
aI23
aI2
aI2
aI13
aI35
aI1
aI1
aI15
aI65
aI2
aI3
aI0
aI0
aI2
aI3
aI0
aI0
aI1
aI4
aI41
aI18
aI2
aI1
aI18
aI30
aI0
aI0
aI0
aI0
aI0
aI1
aI0
aI0
aI0
aI3
aI59
aI3
aI2
aI0
aI13
aI6
aI0
aI2
aI14
aI0
aI0
aI3
aI21
aI2
aI0
aI2
aI45
aI2
aI0
aI3
aI2
aI4
aI0
aI0
aI3
aI7
aI4
aI0
aI0
aI5
aI7
aI0
aI0
aI0
aI1
aI0
aI3
aI1
aI2
aI1
aI0
aI0
aI1
aI0
aI0
aI0
aI1
aI0
aI0
aI0
aI0
aI5
aI1
aI5
aI2
aI3
aI0
aI0
aI0
aI0
aI0
aI0
aI0
aI0
aI0
aI0
aI0
aI0
aI1
aI5
aI1
aI3
aI2
aI5
aI1
aI6
aI14
aI8
aI0
aI0
aI10
aI7
aI0
aI0
aI0
aI0
aI0
aI0
aI0
aI0
aI0
aI0
aI0
aI0
aI0
aI0
aI0
aI0
aI0
aI0
aI0
aI0
aI0
aI0
aI0
aI0
aI0
aI0
aI0
aI0
aI0
aI0
aI0
aI0
aI0
aI0
aI0
aI0
aI0
aI0
aI0
aI0
aI124
aI0
aI0
aI0
aI0
aI0
aI0
aI0
aI0
aI0
aI0
aI0
aI0
aI0
aI0
aI0
aI0
aI0
aI0
aI0
aI0
aI0
aI0
aI0
aI0
aI0
aI0
aI0
aI0
aI0
aI1
aI0
aI1
aI1
aI1
aI1
aI2
aI0
aI0
aI0
aI0
aI0
aI0
aI0
aI0
aI83
aI0
aI0
aI41
aI194
aI0
aI0
aI0
aI0
aI0
aI0
aI0
aI0
aI0
aI0
aI0
aI144
aI0
aI0
aI0
aI134
aI0
aI0
aI0
aI0
aI0
aI0
aI0
aI0
aI0
aI0
aI0
aI0
aI0
aI0
aI0
aI0
aI0
aI0
aI0
aI0
aI0
aI0
aI0
aI0
aI0
aI6
aI0
aI5
aI17
aI4
aI19
aI0
aI0
aI1
aI3
aI0
aI1
aI0
aI0
aI0
aI0
aI5
aI0
aI0
aI0
aI0
aI0
aI3
aI0
aI0
aI1
aI0
aI1
aI0
aI1
aI0
aI0
aI1
aI2
aI0
aI0
aI0
aI0
aI2
aI0
aI0
aI0
aI7
aI0
aI0
aI2
aI0
aI0
aI0
aI0
aI0
aI0
aI1
aI2
aI16
aI1
aI15
aI0
aI6
aI0
aI2
aI0
aa(lp39
F6.2665385040631225
aF-6.578113419112514
aF-7.8843044678007255
aF1590.7589752741683
aF522.9206045662443
aF1079.9502475403087
aF228293.84608610455
aF228293.84608610455
aF228293.84608610455
aF228293.84608610455
aF228293.84608610455
aF228293.84608610455
aF228293.84608610455
aF228293.84608610455
aF228293.84608610455
aF228293.84608610455
aI1
aI3
aI41
aI3
aI2
aI1
aI26
aI10
aI2
aI4
aI22
aI7
aI2
aI11
aI33
aI2
aI2
aI13
aI57
aI0
aI2
aI0
aI0
aI4
aI1
aI0
aI0
aI6
aI12
aI46
aI22
aI7
aI6
aI25
aI54
aI0
aI5
aI0
aI0
aI1
aI5
aI0
aI0
aI2
aI6
aI63
aI6
aI3
aI4
aI36
aI9
aI0
aI7
aI25
aI5
aI1
aI12
aI41
aI4
aI2
aI4
aI48
aI4
aI0
aI1
aI6
aI11
aI0
aI1
aI1
aI10
aI2
aI0
aI0
aI1
aI16
aI0
aI0
aI0
aI0
aI5
aI2
aI6
aI6
aI3
aI0
aI0
aI6
aI0
aI0
aI0
aI0
aI0
aI0
aI0
aI0
aI5
aI9
aI1
aI1
aI3
aI0
aI0
aI0
aI0
aI0
aI0
aI0
aI0
aI6
aI1
aI0
aI0
aI3
aI1
aI0
aI5
aI0
aI0
aI1
aI3
aI10
aI7
aI3
aI0
aI13
aI5
aI0
aI0
aI0
aI0
aI0
aI0
aI0
aI0
aI0
aI0
aI0
aI0
aI0
aI0
aI0
aI0
aI0
aI0
aI0
aI0
aI0
aI0
aI0
aI0
aI0
aI0
aI0
aI0
aI0
aI0
aI0
aI0
aI0
aI0
aI0
aI0
aI0
aI0
aI0
aI0
aI121
aI0
aI0
aI0
aI33
aI0
aI0
aI0
aI0
aI0
aI0
aI0
aI0
aI0
aI0
aI0
aI0
aI0
aI0
aI0
aI0
aI0
aI0
aI0
aI0
aI0
aI0
aI0
aI0
aI0
aI0
aI0
aI0
aI0
aI0
aI0
aI0
aI0
aI0
aI0
aI0
aI0
aI0
aI0
aI0
aI194
aI0
aI0
aI0
aI203
aI0
aI0
aI0
aI0
aI0
aI0
aI0
aI0
aI0
aI0
aI0
aI147
aI0
aI0
aI0
aI176
aI0
aI0
aI0
aI0
aI0
aI0
aI0
aI0
aI0
aI0
aI0
aI0
aI0
aI0
aI0
aI0
aI0
aI0
aI0
aI0
aI0
aI0
aI0
aI0
aI0
aI0
aI0
aI0
aI0
aI0
aI0
aI0
aI0
aI0
aI0
aI0
aI0
aI0
aI0
aI0
aI0
aI0
aI0
aI51
aI0
aI0
aI0
aI35
aI0
aI0
aI0
aI0
aI0
aI0
aI0
aI0
aI0
aI0
aI0
aI8
aI0
aI0
aI0
aI60
aI0
aI0
aI0
aI0
aI0
aI0
aI0
aI0
aI0
aI0
aI0
aI0
aI0
aI0
aI0
aI0
aI0
aI0
aI0
aI0
aI0
aI0
aI0
aa(lp40
F-11.202870773233508
aF1.369509466578725
aF1.1186512387293022
aF1558.708057627665
aF508.9358797830724
aF816.7119521270411
aF90517.06312991185
aF90517.06312991185
aF90517.06312991185
aF90517.06312991185
aF90517.06312991185
aF90517.06312991185
aF90517.06312991185
aF90517.06312991185
aF90517.06312991185
aF90517.06312991185
aI0
aI11
aI40
aI5
aI2
aI5
aI27
aI32
aI3
aI7
aI27
aI11
aI0
aI13
aI37
aI2
aI0
aI5
aI64
aI10
aI1
aI0
aI0
aI7
aI2
aI0
aI0
aI3
aI4
aI49
aI33
aI7
aI0
aI27
aI37
aI2
aI0
aI0
aI0
aI1
aI0
aI0
aI0
aI2
aI10
aI66
aI5
aI3
aI0
aI32
aI7
aI0
aI1
aI17
aI8
aI4
aI8
aI23
aI9
aI3
aI1
aI49
aI9
aI2
aI3
aI6
aI9
aI0
aI0
aI1
aI10
aI4
aI0
aI1
aI1
aI9
aI0
aI0
aI8
aI2
aI4
aI1
aI10
aI3
aI0
aI0
aI0
aI1
aI0
aI0
aI0
aI3
aI0
aI0
aI0
aI0
aI8
aI1
aI6
aI2
aI0
aI0
aI0
aI1
aI2
aI0
aI0
aI0
aI1
aI0
aI0
aI0
aI2
aI3
aI3
aI0
aI10
aI8
aI4
aI1
aI12
aI8
aI2
aI0
aI1
aI24
aI1
aI0
aI0
aI0
aI0
aI0
aI0
aI0
aI0
aI0
aI0
aI0
aI0
aI0
aI0
aI0
aI0
aI0
aI0
aI0
aI0
aI0
aI0
aI0
aI0
aI0
aI0
aI0
aI0
aI0
aI0
aI0
aI0
aI0
aI0
aI0
aI0
aI0
aI0
aI0
aI0
aI136
aI0
aI0
aI0
aI40
aI0
aI0
aI0
aI0
aI0
aI0
aI0
aI0
aI0
aI0
aI0
aI0
aI0
aI0
aI0
aI0
aI0
aI0
aI0
aI0
aI0
aI0
aI0
aI0
aI0
aI0
aI0
aI0
aI0
aI0
aI0
aI0
aI0
aI0
aI0
aI0
aI0
aI0
aI0
aI0
aI196
aI0
aI0
aI0
aI213
aI0
aI0
aI0
aI0
aI0
aI0
aI0
aI0
aI0
aI0
aI0
aI174
aI0
aI0
aI0
aI150
aI0
aI0
aI0
aI0
aI0
aI0
aI0
aI0
aI0
aI0
aI0
aI0
aI0
aI0
aI0
aI0
aI0
aI0
aI0
aI0
aI0
aI0
aI0
aI0
aI0
aI0
aI0
aI0
aI0
aI0
aI0
aI0
aI0
aI0
aI0
aI0
aI0
aI0
aI0
aI0
aI0
aI0
aI0
aI71
aI0
aI0
aI0
aI24
aI0
aI0
aI0
aI0
aI0
aI0
aI0
aI0
aI0
aI0
aI0
aI7
aI0
aI0
aI0
aI74
aI0
aI0
aI0
aI0
aI0
aI0
aI0
aI0
aI0
aI0
aI0
aI0
aI0
aI0
aI0
aI0
aI0
aI0
aI0
aI0
aI0
aI0
aI0
aa(lp41
F-26.048506833162904
aF-403.4671676444214
aF-34.302096591288965
aF1514.4242156544265
aF15797.034106942316
aF271.762175649932
aF37661.72446633064
aF37661.72446633064
aF37661.72446633064
aF37661.72446633064
aF37661.72446633064
aF37661.72446633064
aF37661.72446633064
aF37661.72446633064
aF37661.72446633064
aF37661.72446633064
aI0
aI0
aI0
aI0
aI0
aI0
aI0
aI0
aI0
aI0
aI0
aI0
aI0
aI0
aI0
aI0
aI1
aI142
aI24
aI0
aI2
aI0
aI0
aI0
aI2
aI0
aI0
aI0
aI2
aI2
aI0
aI0
aI5
aI19
aI19
aI6
aI0
aI0
aI0
aI3
aI4
aI0
aI0
aI5
aI4
aI3
aI3
aI0
aI0
aI0
aI0
aI1
aI0
aI1
aI1
aI3
aI1
aI1
aI2
aI6
aI0
aI1
aI1
aI1
aI0
aI0
aI0
aI0
aI0
aI0
aI0
aI0
aI1
aI0
aI0
aI1
aI0
aI1
aI2
aI0
aI0
aI1
aI0
aI0
aI0
aI0
aI0
aI2
aI2
aI0
aI0
aI0
aI5
aI7
aI0
aI1
aI0
aI1
aI0
aI0
aI0
aI0
aI0
aI1
aI0
aI0
aI0
aI1
aI1
aI1
aI38
aI0
aI0
aI0
aI0
aI0
aI0
aI0
aI1
aI2
aI0
aI0
aI0
aI2
aI0
aI0
aI0
aI0
aI0
aI0
aI0
aI0
aI0
aI0
aI0
aI0
aI0
aI0
aI0
aI0
aI0
aI0
aI0
aI0
aI0
aI0
aI0
aI0
aI0
aI0
aI0
aI0
aI0
aI0
aI0
aI0
aI0
aI0
aI0
aI0
aI0
aI0
aI0
aI0
aI0
aI0
aI0
aI71
aI0
aI0
aI0
aI0
aI0
aI0
aI0
aI0
aI0
aI0
aI0
aI0
aI0
aI0
aI0
aI0
aI0
aI0
aI0
aI0
aI0
aI0
aI0
aI0
aI0
aI0
aI0
aI0
aI0
aI0
aI0
aI0
aI0
aI0
aI0
aI0
aI0
aI0
aI0
aI0
aI0
aI0
aI0
aI0
aI79
aI0
aI0
aI0
aI76
aI0
aI0
aI0
aI0
aI0
aI0
aI0
aI0
aI0
aI0
aI0
aI34
aI0
aI0
aI0
aI76
aI0
aI0
aI0
aI0
aI0
aI0
aI0
aI0
aI0
aI0
aI0
aI0
aI0
aI0
aI0
aI0
aI0
aI0
aI0
aI0
aI0
aI0
aI0
aI0
aI0
aI0
aI0
aI0
aI0
aI0
aI0
aI0
aI0
aI0
aI0
aI0
aI0
aI0
aI0
aI0
aI0
aI0
aI0
aI30
aI0
aI0
aI0
aI0
aI0
aI0
aI0
aI0
aI0
aI0
aI0
aI0
aI0
aI0
aI0
aI2
aI0
aI0
aI0
aI39
aI0
aI0
aI0
aI0
aI0
aI0
aI0
aI0
aI0
aI0
aI0
aI0
aI0
aI0
aI0
aI0
aI0
aI0
aI0
aI0
aI0
aI0
aI0
aa(lp42
F-2.4217000627940846
aF-395.93655779155455
aF-37.65956201916039
aF1425.8312620171284
aF13922.458604672469
aF583.988675907262
aF113811.38741823002
aF113811.38741823002
aF113811.38741823002
aF113811.38741823002
aF113811.38741823002
aF113811.38741823002
aF113811.38741823002
aF113811.38741823002
aF113811.38741823002
aF113811.38741823002
aI1
aI0
aI0
aI0
aI1
aI0
aI0
aI0
aI1
aI0
aI0
aI0
aI1
aI0
aI0
aI0
aI8
aI136
aI12
aI0
aI14
aI0
aI0
aI0
aI6
aI0
aI0
aI0
aI1
aI0
aI0
aI0
aI1
aI103
aI30
aI3
aI2
aI0
aI0
aI5
aI2
aI0
aI0
aI1
aI0
aI1
aI0
aI1
aI0
aI0
aI0
aI0
aI0
aI0
aI0
aI0
aI0
aI0
aI0
aI0
aI0
aI0
aI0
aI0
aI0
aI0
aI1
aI0
aI0
aI0
aI0
aI0
aI0
aI0
aI0
aI0
aI0
aI0
aI0
aI0
aI0
aI0
aI0
aI0
aI0
aI0
aI0
aI0
aI0
aI0
aI0
aI0
aI5
aI5
aI7
aI0
aI0
aI1
aI0
aI2
aI0
aI0
aI0
aI4
aI0
aI0
aI0
aI2
aI1
aI7
aI39
aI2
aI0
aI0
aI0
aI0
aI0
aI0
aI0
aI0
aI0
aI0
aI0
aI1
aI0
aI0
aI0
aI0
aI0
aI0
aI0
aI0
aI0
aI0
aI0
aI0
aI0
aI0
aI0
aI0
aI0
aI0
aI0
aI0
aI0
aI0
aI0
aI0
aI0
aI0
aI0
aI0
aI0
aI0
aI0
aI0
aI0
aI0
aI0
aI0
aI0
aI0
aI0
aI15
aI0
aI0
aI0
aI45
aI0
aI0
aI0
aI0
aI0
aI0
aI0
aI0
aI0
aI0
aI0
aI17
aI0
aI0
aI0
aI0
aI0
aI0
aI0
aI0
aI0
aI0
aI0
aI0
aI0
aI0
aI0
aI0
aI0
aI0
aI0
aI0
aI0
aI0
aI0
aI0
aI0
aI0
aI0
aI0
aI0
aI0
aI0
aI0
aI65
aI0
aI0
aI22
aI89
aI0
aI0
aI0
aI0
aI0
aI0
aI0
aI0
aI0
aI0
aI0
aI66
aI0
aI0
aI0
aI88
aI0
aI0
aI0
aI0
aI0
aI0
aI0
aI0
aI0
aI0
aI0
aI0
aI0
aI0
aI0
aI0
aI0
aI0
aI0
aI0
aI0
aI0
aI0
aI0
aI0
aI0
aI0
aI0
aI0
aI0
aI0
aI0
aI0
aI0
aI0
aI0
aI0
aI0
aI0
aI0
aI0
aI0
aI0
aI33
aI0
aI0
aI0
aI6
aI0
aI0
aI0
aI0
aI0
aI0
aI0
aI0
aI0
aI0
aI0
aI0
aI0
aI0
aI0
aI38
aI0
aI0
aI0
aI0
aI0
aI0
aI0
aI0
aI0
aI0
aI0
aI0
aI0
aI0
aI0
aI0
aI0
aI0
aI0
aI0
aI0
aI0
aI0
aa(lp43
F-12.563650144319592
aF-407.4490026985281
aF-41.63339447826134
aF1574.6942088750295
aF13970.622198863357
aF772.0565335364976
aF87980.16531793134
aF87980.16531793134
aF87980.16531793134
aF87980.16531793134
aF87980.16531793134
aF87980.16531793134
aF87980.16531793134
aF87980.16531793134
aF87980.16531793134
aF87980.16531793134
aI0
aI0
aI2
aI0
aI0
aI0
aI0
aI0
aI0
aI0
aI0
aI0
aI0
aI0
aI0
aI0
aI5
aI218
aI9
aI1
aI8
aI0
aI0
aI1
aI4
aI0
aI0
aI0
aI0
aI0
aI0
aI0
aI12
aI100
aI29
aI8
aI6
aI0
aI0
aI0
aI4
aI0
aI0
aI0
aI0
aI0
aI0
aI0
aI0
aI2
aI1
aI0
aI1
aI0
aI0
aI1
aI2
aI0
aI0
aI0
aI0
aI1
aI0
aI0
aI0
aI0
aI0
aI0
aI0
aI0
aI1
aI0
aI1
aI0
aI1
aI0
aI1
aI0
aI1
aI0
aI0
aI0
aI0
aI0
aI1
aI0
aI0
aI0
aI0
aI0
aI0
aI0
aI7
aI11
aI0
aI1
aI0
aI0
aI0
aI0
aI0
aI0
aI0
aI4
aI0
aI0
aI0
aI1
aI0
aI2
aI62
aI4
aI0
aI0
aI0
aI0
aI0
aI0
aI0
aI0
aI0
aI0
aI0
aI0
aI0
aI1
aI1
aI0
aI0
aI0
aI0
aI0
aI0
aI0
aI0
aI0
aI0
aI0
aI0
aI0
aI0
aI0
aI0
aI0
aI0
aI0
aI0
aI0
aI0
aI0
aI0
aI0
aI0
aI0
aI0
aI0
aI0
aI0
aI0
aI0
aI0
aI0
aI0
aI41
aI0
aI0
aI0
aI59
aI0
aI0
aI0
aI0
aI0
aI0
aI0
aI0
aI0
aI0
aI0
aI0
aI0
aI0
aI0
aI0
aI0
aI0
aI0
aI0
aI0
aI0
aI0
aI0
aI0
aI0
aI0
aI0
aI0
aI0
aI0
aI0
aI0
aI0
aI0
aI0
aI0
aI0
aI0
aI0
aI0
aI0
aI0
aI0
aI75
aI0
aI0
aI42
aI111
aI0
aI0
aI0
aI0
aI0
aI0
aI0
aI0
aI0
aI0
aI0
aI81
aI0
aI0
aI0
aI106
aI0
aI0
aI0
aI0
aI0
aI0
aI0
aI0
aI0
aI0
aI0
aI0
aI0
aI0
aI0
aI0
aI0
aI0
aI0
aI0
aI0
aI0
aI0
aI0
aI0
aI0
aI0
aI0
aI0
aI0
aI0
aI0
aI0
aI0
aI0
aI0
aI0
aI0
aI0
aI0
aI0
aI0
aI0
aI45
aI0
aI0
aI0
aI1
aI0
aI0
aI0
aI0
aI0
aI0
aI0
aI0
aI0
aI0
aI0
aI0
aI0
aI0
aI0
aI54
aI0
aI0
aI0
aI0
aI0
aI0
aI0
aI0
aI0
aI0
aI0
aI0
aI0
aI0
aI0
aI0
aI0
aI0
aI0
aI0
aI0
aI0
aI0
aa(lp44
F-27.600268980424104
aF-427.60175310114175
aF-20.92688187378096
aF1856.5808539576185
aF13241.214591552814
aF849.2244584425903
aF54907.89625465087
aF54907.89625465087
aF54907.89625465087
aF54907.89625465087
aF54907.89625465087
aF54907.89625465087
aF54907.89625465087
aF54907.89625465087
aF54907.89625465087
aF54907.89625465087
aI0
aI0
aI3
aI0
aI0
aI0
aI0
aI0
aI0
aI0
aI0
aI0
aI0
aI0
aI0
aI0
aI21
aI176
aI41
aI1
aI4
aI0
aI0
aI0
aI0
aI0
aI0
aI0
aI0
aI0
aI0
aI0
aI8
aI8
aI39
aI5
aI1
aI0
aI0
aI5
aI0
aI0
aI0
aI0
aI0
aI0
aI0
aI0
aI0
aI0
aI1
aI0
aI0
aI0
aI0
aI0
aI0
aI0
aI0
aI0
aI0
aI0
aI0
aI0
aI0
aI0
aI0
aI0
aI0
aI1
aI0
aI0
aI0
aI0
aI0
aI0
aI0
aI0
aI0
aI0
aI0
aI0
aI0
aI0
aI0
aI0
aI0
aI1
aI0
aI0
aI0
aI1
aI0
aI7
aI3
aI1
aI0
aI0
aI0
aI0
aI0
aI0
aI0
aI0
aI0
aI0
aI0
aI6
aI4
aI8
aI44
aI4
aI0
aI0
aI0
aI0
aI0
aI0
aI0
aI0
aI0
aI0
aI0
aI0
aI0
aI0
aI0
aI0
aI0
aI0
aI0
aI0
aI0
aI0
aI0
aI0
aI0
aI0
aI0
aI0
aI0
aI0
aI0
aI0
aI0
aI0
aI0
aI0
aI0
aI0
aI0
aI0
aI0
aI0
aI0
aI0
aI0
aI0
aI0
aI0
aI0
aI0
aI0
aI20
aI0
aI0
aI0
aI60
aI0
aI0
aI0
aI0
aI0
aI0
aI0
aI0
aI0
aI0
aI0
aI0
aI0
aI0
aI0
aI0
aI0
aI0
aI0
aI0
aI0
aI0
aI0
aI0
aI0
aI0
aI0
aI0
aI0
aI0
aI0
aI0
aI0
aI0
aI0
aI0
aI0
aI0
aI0
aI0
aI0
aI0
aI0
aI0
aI55
aI0
aI0
aI33
aI86
aI0
aI0
aI0
aI0
aI0
aI0
aI0
aI0
aI0
aI0
aI0
aI56
aI0
aI0
aI0
aI83
aI0
aI0
aI0
aI0
aI0
aI0
aI0
aI0
aI0
aI0
aI0
aI0
aI0
aI0
aI0
aI0
aI0
aI0
aI0
aI0
aI0
aI0
aI0
aI0
aI0
aI0
aI0
aI0
aI0
aI0
aI0
aI0
aI0
aI0
aI0
aI0
aI0
aI0
aI0
aI4
aI1
aI0
aI0
aI31
aI0
aI0
aI0
aI6
aI0
aI0
aI0
aI0
aI0
aI0
aI0
aI0
aI0
aI0
aI0
aI0
aI0
aI0
aI0
aI38
aI0
aI0
aI0
aI0
aI0
aI0
aI0
aI0
aI0
aI0
aI0
aI0
aI0
aI0
aI0
aI0
aI0
aI0
aI0
aI0
aI0
aI0
aI0
aa(lp45
F-17.005953318112248
aF-418.6659234034777
aF-41.86976813227046
aF1693.9042723895216
aF9631.009203425381
aF698.3265139630497
aF132292.74571515358
aF132292.74571515358
aF132292.74571515358
aF132292.74571515358
aF132292.74571515358
aF132292.74571515358
aF132292.74571515358
aF132292.74571515358
aF132292.74571515358
aF132292.74571515358
aI0
aI0
aI0
aI0
aI0
aI0
aI1
aI0
aI0
aI0
aI0
aI0
aI0
aI0
aI0
aI0
aI13
aI223
aI16
aI1
aI15
aI0
aI0
aI0
aI3
aI0
aI0
aI1
aI0
aI0
aI1
aI0
aI1
aI39
aI13
aI9
aI1
aI0
aI0
aI4
aI0
aI0
aI0
aI1
aI1
aI2
aI0
aI0
aI0
aI0
aI0
aI0
aI0
aI0
aI0
aI0
aI0
aI0
aI0
aI0
aI0
aI0
aI0
aI0
aI0
aI0
aI0
aI0
aI0
aI0
aI0
aI0
aI0
aI0
aI0
aI0
aI0
aI0
aI0
aI0
aI0
aI0
aI0
aI0
aI0
aI0
aI0
aI0
aI0
aI0
aI0
aI0
aI8
aI10
aI0
aI0
aI0
aI0
aI0
aI1
aI0
aI0
aI0
aI4
aI0
aI0
aI0
aI4
aI0
aI7
aI42
aI3
aI0
aI0
aI0
aI0
aI0
aI0
aI0
aI0
aI0
aI0
aI0
aI0
aI0
aI0
aI0
aI0
aI0
aI0
aI0
aI0
aI0
aI0
aI0
aI0
aI0
aI0
aI0
aI0
aI0
aI0
aI0
aI0
aI0
aI0
aI0
aI0
aI0
aI0
aI0
aI0
aI0
aI0
aI0
aI0
aI0
aI0
aI0
aI0
aI0
aI0
aI0
aI0
aI0
aI0
aI0
aI79
aI0
aI0
aI0
aI0
aI0
aI0
aI0
aI0
aI0
aI0
aI0
aI0
aI0
aI0
aI0
aI0
aI0
aI0
aI0
aI0
aI0
aI0
aI0
aI0
aI0
aI0
aI0
aI0
aI0
aI0
aI0
aI0
aI0
aI0
aI0
aI0
aI0
aI0
aI0
aI0
aI0
aI0
aI0
aI0
aI64
aI0
aI0
aI29
aI94
aI0
aI0
aI0
aI0
aI0
aI0
aI0
aI0
aI0
aI0
aI0
aI69
aI0
aI0
aI0
aI89
aI0
aI0
aI0
aI0
aI0
aI0
aI0
aI0
aI0
aI0
aI0
aI0
aI0
aI0
aI0
aI0
aI0
aI0
aI0
aI0
aI0
aI0
aI0
aI0
aI0
aI0
aI0
aI0
aI0
aI0
aI0
aI0
aI0
aI0
aI0
aI0
aI0
aI0
aI0
aI0
aI0
aI0
aI0
aI35
aI0
aI0
aI0
aI3
aI0
aI0
aI0
aI0
aI0
aI0
aI0
aI0
aI0
aI0
aI0
aI0
aI0
aI0
aI0
aI41
aI0
aI0
aI0
aI0
aI0
aI0
aI0
aI0
aI0
aI0
aI0
aI0
aI0
aI0
aI0
aI0
aI0
aI0
aI0
aI0
aI0
aI0
aI0
aa(lp46
F-18.902932863128342
aF-372.6563721728449
aF-26.28559322838774
aF1977.3648545694136
aF4601.286712794222
aF1427.8894955568787
aF390625.0
aF390625.0
aF390625.0
aF390625.0
aF390625.0
aF390625.0
aF390625.0
aF390625.0
aF390625.0
aF390625.0
aI0
aI0
aI0
aI0
aI0
aI0
aI0
aI0
aI0
aI0
aI0
aI0
aI0
aI0
aI0
aI0
aI0
aI233
aI9
aI0
aI0
aI0
aI0
aI0
aI0
aI0
aI0
aI0
aI0
aI0
aI0
aI0
aI0
aI49
aI54
aI0
aI0
aI0
aI0
aI0
aI0
aI0
aI0
aI0
aI0
aI0
aI0
aI0
aI0
aI0
aI0
aI0
aI0
aI0
aI0
aI0
aI0
aI0
aI0
aI0
aI0
aI0
aI0
aI0
aI0
aI0
aI0
aI0
aI0
aI0
aI0
aI0
aI0
aI0
aI0
aI0
aI0
aI0
aI0
aI0
aI0
aI0
aI0
aI0
aI0
aI0
aI0
aI0
aI0
aI0
aI0
aI0
aI0
aI0
aI11
aI0
aI0
aI0
aI0
aI0
aI0
aI0
aI0
aI0
aI0
aI0
aI0
aI0
aI0
aI1
aI57
aI0
aI0
aI0
aI0
aI0
aI0
aI0
aI0
aI0
aI0
aI0
aI0
aI0
aI0
aI0
aI0
aI0
aI0
aI0
aI0
aI0
aI0
aI0
aI0
aI0
aI0
aI0
aI0
aI0
aI0
aI0
aI0
aI0
aI0
aI0
aI0
aI0
aI0
aI0
aI0
aI0
aI0
aI0
aI0
aI0
aI0
aI0
aI0
aI0
aI0
aI0
aI0
aI0
aI0
aI0
aI0
aI69
aI0
aI0
aI0
aI0
aI0
aI0
aI0
aI0
aI0
aI0
aI0
aI0
aI0
aI0
aI0
aI0
aI0
aI0
aI0
aI0
aI0
aI0
aI0
aI0
aI0
aI0
aI0
aI0
aI0
aI0
aI0
aI0
aI0
aI0
aI0
aI0
aI0
aI0
aI0
aI0
aI0
aI0
aI0
aI0
aI71
aI0
aI0
aI34
aI60
aI0
aI0
aI35
aI0
aI0
aI0
aI0
aI0
aI0
aI0
aI0
aI77
aI0
aI0
aI0
aI68
aI0
aI0
aI0
aI0
aI0
aI0
aI0
aI0
aI0
aI0
aI0
aI0
aI0
aI0
aI0
aI0
aI0
aI0
aI0
aI0
aI0
aI0
aI0
aI0
aI0
aI0
aI0
aI0
aI0
aI0
aI0
aI0
aI0
aI0
aI0
aI0
aI0
aI0
aI0
aI0
aI0
aI0
aI0
aI36
aI0
aI0
aI0
aI2
aI0
aI0
aI0
aI0
aI0
aI0
aI0
aI0
aI0
aI0
aI0
aI0
aI0
aI0
aI0
aI31
aI0
aI0
aI0
aI0
aI0
aI0
aI0
aI0
aI0
aI0
aI0
aI0
aI0
aI0
aI0
aI0
aI0
aI0
aI0
aI0
aI0
aI0
aI0
aa(lp47
F-41.16200768751315
aF-383.0383736797376
aF-70.67869885062795
aF1912.3597889392136
aF8179.1376575474715
aF934.42058337064
aF168151.25390625
aF168151.25390625
aF168151.25390625
aF168151.25390625
aF168151.25390625
aF168151.25390625
aF168151.25390625
aF168151.25390625
aF168151.25390625
aF168151.25390625
aI0
aI3
aI1
aI1
aI4
aI2
aI0
aI1
aI2
aI2
aI0
aI2
aI0
aI1
aI3
aI0
aI11
aI277
aI10
aI11
aI7
aI0
aI0
aI6
aI7
aI0
aI0
aI2
aI7
aI4
aI1
aI3
aI0
aI2
aI1
aI2
aI0
aI0
aI0
aI3
aI0
aI0
aI0
aI2
aI0
aI0
aI0
aI0
aI0
aI0
aI0
aI0
aI0
aI0
aI0
aI0
aI0
aI0
aI0
aI0
aI0
aI0
aI0
aI0
aI0
aI0
aI0
aI0
aI0
aI0
aI0
aI0
aI0
aI0
aI0
aI0
aI0
aI0
aI0
aI0
aI1
aI0
aI0
aI0
aI0
aI0
aI0
aI1
aI6
aI0
aI0
aI0
aI1
aI2
aI2
aI0
aI0
aI0
aI0
aI3
aI0
aI0
aI0
aI5
aI0
aI0
aI0
aI1
aI0
aI0
aI52
aI4
aI0
aI0
aI1
aI0
aI2
aI0
aI0
aI1
aI0
aI0
aI0
aI1
aI0
aI0
aI1
aI0
aI0
aI0
aI0
aI0
aI0
aI0
aI0
aI0
aI0
aI0
aI0
aI0
aI0
aI0
aI0
aI0
aI0
aI0
aI0
aI0
aI0
aI0
aI0
aI0
aI0
aI0
aI0
aI0
aI0
aI0
aI0
aI0
aI0
aI0
aI0
aI0
aI0
aI0
aI0
aI84
aI0
aI0
aI0
aI0
aI0
aI0
aI0
aI0
aI0
aI0
aI0
aI0
aI0
aI0
aI0
aI0
aI0
aI0
aI0
aI0
aI0
aI0
aI0
aI0
aI0
aI0
aI0
aI0
aI0
aI0
aI0
aI0
aI0
aI0
aI0
aI0
aI0
aI0
aI0
aI0
aI0
aI0
aI0
aI0
aI63
aI0
aI0
aI36
aI105
aI0
aI0
aI6
aI0
aI0
aI0
aI0
aI0
aI0
aI0
aI0
aI68
aI0
aI0
aI0
aI100
aI0
aI0
aI0
aI0
aI0
aI0
aI0
aI0
aI0
aI0
aI0
aI0
aI0
aI0
aI0
aI0
aI0
aI0
aI0
aI0
aI0
aI0
aI0
aI0
aI0
aI0
aI0
aI0
aI0
aI0
aI0
aI0
aI0
aI0
aI0
aI0
aI0
aI0
aI0
aI0
aI0
aI0
aI0
aI34
aI0
aI0
aI0
aI0
aI0
aI0
aI0
aI0
aI0
aI0
aI0
aI0
aI0
aI0
aI0
aI0
aI0
aI0
aI0
aI50
aI0
aI0
aI0
aI0
aI0
aI0
aI0
aI0
aI0
aI0
aI0
aI0
aI0
aI0
aI0
aI0
aI0
aI0
aI0
aI0
aI0
aI0
aI0
aa(lp48
F-29.075245670234818
aF-353.932401991314
aF-52.77754447461881
aF1930.6839427358777
aF9161.889667184456
aF1425.1284019352593
aF339472.704035998
aF339472.704035998
aF339472.704035998
aF339472.704035998
aF339472.704035998
aF339472.704035998
aF339472.704035998
aF339472.704035998
aF339472.704035998
aF339472.704035998
aI1
aI0
aI0
aI0
aI0
aI1
aI0
aI0
aI0
aI0
aI0
aI0
aI0
aI0
aI0
aI0
aI14
aI345
aI17
aI0
aI7
aI0
aI0
aI1
aI1
aI0
aI0
aI0
aI1
aI4
aI0
aI0
aI5
aI17
aI22
aI7
aI4
aI0
aI0
aI0
aI0
aI0
aI0
aI1
aI0
aI0
aI1
aI0
aI0
aI0
aI1
aI0
aI0
aI1
aI0
aI0
aI0
aI0
aI0
aI0
aI0
aI0
aI1
aI0
aI0
aI0
aI0
aI0
aI0
aI0
aI0
aI0
aI1
aI0
aI0
aI0
aI0
aI0
aI0
aI0
aI0
aI0
aI0
aI0
aI0
aI0
aI0
aI1
aI2
aI0
aI0
aI2
aI2
aI5
aI2
aI0
aI0
aI0
aI0
aI0
aI0
aI0
aI0
aI1
aI0
aI0
aI0
aI5
aI0
aI6
aI59
aI4
aI0
aI0
aI0
aI0
aI0
aI0
aI0
aI0
aI0
aI0
aI0
aI1
aI0
aI0
aI0
aI1
aI0
aI0
aI0
aI0
aI0
aI0
aI0
aI0
aI0
aI0
aI0
aI0
aI0
aI0
aI0
aI0
aI0
aI0
aI0
aI0
aI0
aI0
aI0
aI0
aI0
aI0
aI0
aI0
aI0
aI0
aI0
aI0
aI0
aI0
aI0
aI0
aI0
aI0
aI0
aI92
aI0
aI0
aI0
aI0
aI0
aI0
aI0
aI0
aI0
aI0
aI0
aI0
aI0
aI0
aI0
aI0
aI0
aI0
aI0
aI0
aI0
aI0
aI0
aI0
aI0
aI0
aI0
aI0
aI0
aI0
aI0
aI0
aI0
aI0
aI0
aI0
aI0
aI0
aI0
aI0
aI0
aI0
aI0
aI5
aI78
aI0
aI0
aI38
aI77
aI0
aI0
aI41
aI0
aI0
aI0
aI0
aI0
aI0
aI0
aI0
aI82
aI0
aI0
aI0
aI131
aI0
aI0
aI0
aI0
aI0
aI0
aI0
aI0
aI0
aI0
aI0
aI0
aI0
aI0
aI0
aI0
aI0
aI0
aI0
aI0
aI0
aI0
aI0
aI0
aI0
aI0
aI0
aI0
aI0
aI0
aI0
aI0
aI0
aI0
aI0
aI0
aI0
aI0
aI0
aI12
aI0
aI0
aI0
aI29
aI0
aI0
aI0
aI1
aI0
aI0
aI0
aI0
aI0
aI0
aI0
aI0
aI0
aI0
aI0
aI0
aI0
aI0
aI0
aI50
aI0
aI0
aI0
aI0
aI0
aI0
aI0
aI0
aI0
aI0
aI0
aI0
aI0
aI0
aI0
aI0
aI0
aI0
aI0
aI0
aI0
aI0
aI0
aa(lp49
F-18.16631203423408
aF-344.51038187463797
aF-81.813277756385
aF1958.6167352396446
aF12359.48706005488
aF1236.4350840977309
aF178149.99767765566
aF178149.99767765566
aF178149.99767765566
aF178149.99767765566
aF178149.99767765566
aF178149.99767765566
aF178149.99767765566
aF178149.99767765566
aF178149.99767765566
aF178149.99767765566
aI0
aI0
aI0
aI0
aI0
aI0
aI0
aI0
aI0
aI0
aI0
aI0
aI0
aI0
aI0
aI0
aI12
aI216
aI23
aI2
aI5
aI0
aI0
aI0
aI3
aI0
aI0
aI0
aI0
aI0
aI0
aI0
aI2
aI127
aI14
aI5
aI2
aI0
aI0
aI0
aI3
aI0
aI0
aI0
aI1
aI0
aI0
aI0
aI0
aI0
aI0
aI0
aI0
aI0
aI0
aI1
aI0
aI0
aI0
aI0
aI0
aI0
aI1
aI0
aI0
aI0
aI0
aI0
aI0
aI0
aI0
aI0
aI0
aI0
aI0
aI0
aI0
aI0
aI0
aI0
aI0
aI0
aI1
aI0
aI1
aI0
aI0
aI0
aI3
aI0
aI0
aI1
aI3
aI1
aI5
aI0
aI0
aI0
aI1
aI0
aI0
aI0
aI0
aI3
aI0
aI0
aI0
aI3
aI1
aI6
aI54
aI7
aI0
aI0
aI0
aI0
aI0
aI0
aI0
aI1
aI0
aI0
aI0
aI0
aI0
aI1
aI0
aI0
aI0
aI0
aI0
aI0
aI0
aI0
aI0
aI0
aI0
aI0
aI0
aI0
aI0
aI0
aI0
aI0
aI0
aI0
aI0
aI0
aI0
aI0
aI0
aI0
aI0
aI0
aI0
aI0
aI0
aI0
aI0
aI0
aI0
aI0
aI0
aI0
aI0
aI0
aI0
aI92
aI0
aI0
aI0
aI0
aI0
aI0
aI0
aI0
aI0
aI0
aI0
aI0
aI0
aI0
aI0
aI0
aI0
aI0
aI0
aI0
aI0
aI0
aI0
aI0
aI0
aI0
aI0
aI0
aI0
aI0
aI0
aI0
aI0
aI0
aI0
aI0
aI0
aI0
aI0
aI0
aI4
aI2
aI3
aI2
aI90
aI0
aI0
aI26
aI80
aI0
aI0
aI4
aI0
aI0
aI0
aI0
aI0
aI0
aI0
aI0
aI87
aI0
aI0
aI0
aI119
aI0
aI0
aI0
aI0
aI0
aI0
aI0
aI0
aI0
aI0
aI0
aI0
aI0
aI0
aI0
aI0
aI0
aI0
aI0
aI0
aI0
aI0
aI0
aI0
aI0
aI0
aI0
aI0
aI0
aI0
aI0
aI0
aI0
aI0
aI0
aI0
aI0
aI0
aI0
aI4
aI3
aI4
aI9
aI24
aI0
aI0
aI0
aI7
aI0
aI0
aI0
aI0
aI0
aI0
aI0
aI0
aI0
aI0
aI0
aI0
aI0
aI0
aI0
aI41
aI0
aI0
aI0
aI0
aI0
aI0
aI0
aI0
aI0
aI0
aI0
aI0
aI0
aI0
aI0
aI0
aI0
aI0
aI0
aI0
aI0
aI0
aI0
aa(lp50
F-38.00424624689855
aF-397.2137482883194
aF-85.15159639989758
aF2027.7862952318858
aF13975.004829509473
aF1225.0372144545738
aF198414.24746615978
aF198414.24746615978
aF198414.24746615978
aF198414.24746615978
aF198414.24746615978
aF198414.24746615978
aF198414.24746615978
aF198414.24746615978
aF198414.24746615978
aF198414.24746615978
aI0
aI0
aI0
aI1
aI0
aI0
aI0
aI0
aI0
aI0
aI0
aI0
aI0
aI0
aI0
aI0
aI14
aI386
aI13
aI4
aI2
aI0
aI0
aI1
aI5
aI0
aI0
aI1
aI5
aI0
aI0
aI0
aI4
aI9
aI1
aI4
aI1
aI0
aI0
aI1
aI3
aI0
aI0
aI1
aI2
aI3
aI0
aI1
aI0
aI0
aI0
aI0
aI0
aI0
aI0
aI0
aI1
aI0
aI0
aI0
aI0
aI1
aI0
aI0
aI1
aI0
aI0
aI0
aI0
aI0
aI0
aI0
aI0
aI0
aI0
aI0
aI0
aI0
aI0
aI0
aI0
aI1
aI0
aI0
aI1
aI0
aI0
aI1
aI1
aI0
aI0
aI0
aI2
aI0
aI5
aI0
aI0
aI0
aI1
aI0
aI0
aI0
aI0
aI3
aI1
aI0
aI0
aI1
aI3
aI3
aI68
aI8
aI0
aI0
aI0
aI0
aI0
aI0
aI0
aI1
aI0
aI0
aI0
aI0
aI0
aI0
aI0
aI0
aI0
aI0
aI0
aI0
aI0
aI0
aI0
aI0
aI0
aI0
aI0
aI0
aI0
aI0
aI0
aI0
aI0
aI0
aI0
aI0
aI0
aI0
aI0
aI0
aI0
aI0
aI0
aI0
aI0
aI0
aI0
aI0
aI0
aI0
aI0
aI0
aI0
aI0
aI0
aI101
aI0
aI0
aI0
aI0
aI0
aI0
aI0
aI0
aI0
aI0
aI0
aI0
aI0
aI0
aI0
aI0
aI0
aI0
aI0
aI0
aI0
aI0
aI0
aI0
aI0
aI0
aI0
aI0
aI0
aI0
aI0
aI0
aI0
aI0
aI0
aI0
aI0
aI0
aI0
aI0
aI0
aI6
aI4
aI5
aI85
aI0
aI0
aI30
aI87
aI0
aI0
aI15
aI0
aI0
aI0
aI0
aI0
aI0
aI0
aI0
aI92
aI0
aI0
aI0
aI105
aI0
aI0
aI21
aI2
aI0
aI1
aI6
aI0
aI0
aI0
aI0
aI0
aI0
aI0
aI0
aI0
aI0
aI0
aI0
aI1
aI2
aI2
aI0
aI0
aI0
aI0
aI0
aI0
aI0
aI0
aI0
aI0
aI0
aI0
aI0
aI0
aI0
aI0
aI0
aI8
aI0
aI0
aI0
aI33
aI0
aI0
aI0
aI0
aI0
aI0
aI0
aI0
aI0
aI0
aI0
aI0
aI0
aI0
aI0
aI5
aI0
aI0
aI0
aI55
aI0
aI0
aI0
aI0
aI0
aI0
aI0
aI0
aI0
aI0
aI0
aI0
aI0
aI0
aI0
aI0
aI0
aI0
aI0
aI0
aI0
aI0
aI0
aa(lp51
F-42.60439529589349
aF-513.8402808073711
aF-110.30589019931465
aF2342.8825018416574
aF18817.93803996108
aF1535.8347605356964
aF111661.53099730116
aF111661.53099730116
aF111661.53099730116
aF111661.53099730116
aF111661.53099730116
aF111661.53099730116
aF111661.53099730116
aF111661.53099730116
aF111661.53099730116
aF111661.53099730116
aI0
aI0
aI0
aI0
aI0
aI0
aI0
aI0
aI0
aI0
aI0
aI0
aI0
aI0
aI0
aI0
aI5
aI364
aI11
aI1
aI2
aI0
aI0
aI0
aI1
aI0
aI0
aI0
aI0
aI1
aI0
aI0
aI4
aI14
aI5
aI1
aI0
aI0
aI0
aI2
aI3
aI0
aI0
aI0
aI3
aI0
aI0
aI0
aI0
aI0
aI0
aI0
aI0
aI0
aI0
aI0
aI1
aI0
aI0
aI0
aI0
aI1
aI0
aI0
aI0
aI1
aI0
aI0
aI0
aI0
aI0
aI0
aI0
aI0
aI0
aI1
aI0
aI1
aI0
aI0
aI0
aI1
aI0
aI2
aI0
aI0
aI0
aI0
aI0
aI0
aI0
aI0
aI7
aI3
aI1
aI0
aI0
aI0
aI0
aI3
aI0
aI0
aI0
aI4
aI1
aI0
aI0
aI1
aI1
aI4
aI64
aI2
aI0
aI0
aI0
aI0
aI0
aI0
aI0
aI0
aI0
aI0
aI0
aI0
aI0
aI0
aI1
aI0
aI0
aI0
aI0
aI0
aI0
aI0
aI0
aI0
aI0
aI0
aI0
aI0
aI0
aI0
aI0
aI0
aI0
aI0
aI0
aI0
aI0
aI0
aI0
aI0
aI0
aI0
aI0
aI0
aI0
aI0
aI0
aI0
aI0
aI0
aI0
aI28
aI0
aI0
aI0
aI70
aI0
aI0
aI0
aI0
aI0
aI0
aI0
aI0
aI0
aI0
aI0
aI0
aI0
aI0
aI0
aI0
aI0
aI0
aI0
aI0
aI0
aI0
aI0
aI0
aI0
aI0
aI0
aI0
aI0
aI0
aI0
aI0
aI0
aI0
aI0
aI0
aI0
aI0
aI0
aI0
aI0
aI0
aI5
aI9
aI81
aI0
aI0
aI29
aI36
aI0
aI0
aI15
aI4
aI2
aI4
aI3
aI0
aI0
aI0
aI0
aI85
aI0
aI0
aI0
aI20
aI0
aI0
aI45
aI15
aI21
aI33
aI6
aI0
aI0
aI0
aI0
aI0
aI0
aI0
aI0
aI2
aI0
aI0
aI1
aI0
aI1
aI1
aI1
aI0
aI0
aI0
aI0
aI0
aI0
aI0
aI0
aI0
aI0
aI0
aI0
aI0
aI0
aI0
aI0
aI0
aI0
aI0
aI0
aI45
aI0
aI0
aI0
aI4
aI0
aI0
aI0
aI0
aI0
aI0
aI0
aI0
aI0
aI0
aI0
aI0
aI0
aI0
aI0
aI49
aI0
aI0
aI0
aI0
aI0
aI0
aI0
aI0
aI0
aI0
aI0
aI0
aI0
aI0
aI0
aI0
aI0
aI0
aI0
aI0
aI0
aI0
aI0
aa(lp52
F-64.26044929043996
aF-484.0511981326455
aF-124.52979469310851
aF2616.4076233814494
aF23995.676116137693
aF1979.4903734272227
aF110270.78485158579
aF110270.78485158579
aF110270.78485158579
aF110270.78485158579
aF110270.78485158579
aF110270.78485158579
aF110270.78485158579
aF110270.78485158579
aF110270.78485158579
aF110270.78485158579
aI0
aI0
aI0
aI0
aI0
aI0
aI0
aI0
aI0
aI0
aI0
aI0
aI0
aI0
aI0
aI0
aI34
aI330
aI13
aI0
aI11
aI0
aI0
aI0
aI0
aI0
aI0
aI0
aI4
aI0
aI0
aI0
aI1
aI0
aI1
aI1
aI0
aI0
aI0
aI0
aI1
aI0
aI0
aI0
aI0
aI1
aI0
aI0
aI0
aI0
aI0
aI0
aI0
aI0
aI0
aI0
aI0
aI0
aI0
aI0
aI0
aI0
aI0
aI0
aI0
aI0
aI0
aI0
aI0
aI0
aI1
aI0
aI0
aI0
aI0
aI0
aI0
aI0
aI0
aI0
aI0
aI0
aI2
aI0
aI1
aI0
aI0
aI0
aI2
aI0
aI0
aI0
aI3
aI1
aI3
aI0
aI0
aI1
aI0
aI2
aI1
aI0
aI0
aI3
aI0
aI0
aI0
aI6
aI3
aI5
aI51
aI7
aI0
aI0
aI0
aI0
aI0
aI0
aI1
aI0
aI0
aI0
aI0
aI0
aI0
aI0
aI0
aI0
aI0
aI0
aI0
aI0
aI0
aI0
aI0
aI0
aI0
aI0
aI0
aI0
aI0
aI0
aI0
aI0
aI0
aI0
aI0
aI0
aI0
aI0
aI0
aI0
aI0
aI0
aI0
aI0
aI0
aI0
aI0
aI0
aI0
aI0
aI0
aI36
aI0
aI0
aI0
aI57
aI0
aI0
aI0
aI0
aI0
aI0
aI0
aI0
aI0
aI0
aI0
aI0
aI0
aI0
aI0
aI0
aI0
aI0
aI0
aI0
aI0
aI0
aI0
aI0
aI0
aI0
aI0
aI0
aI0
aI0
aI0
aI0
aI0
aI0
aI0
aI0
aI0
aI0
aI0
aI0
aI0
aI0
aI13
aI10
aI96
aI0
aI0
aI15
aI14
aI0
aI0
aI15
aI4
aI3
aI4
aI16
aI15
aI0
aI0
aI0
aI32
aI0
aI0
aI0
aI7
aI0
aI0
aI49
aI7
aI8
aI11
aI69
aI0
aI0
aI0
aI0
aI3
aI1
aI0
aI0
aI0
aI0
aI1
aI4
aI0
aI0
aI0
aI0
aI0
aI0
aI0
aI0
aI0
aI0
aI0
aI0
aI0
aI0
aI0
aI0
aI0
aI0
aI0
aI0
aI0
aI0
aI0
aI0
aI38
aI0
aI0
aI0
aI0
aI0
aI0
aI0
aI0
aI0
aI0
aI0
aI0
aI0
aI0
aI0
aI1
aI0
aI0
aI0
aI54
aI0
aI0
aI0
aI0
aI0
aI0
aI0
aI0
aI0
aI0
aI0
aI0
aI0
aI0
aI0
aI0
aI0
aI0
aI0
aI0
aI0
aI0
aI0
aa(lp53
F-36.86082434123292
aF-444.6855364720276
aF-77.16445091603622
aF1970.1336945553587
aF17989.281087806627
aF1015.9240542610241
aF162146.49167969497
aF162146.49167969497
aF162146.49167969497
aF162146.49167969497
aF162146.49167969497
aF162146.49167969497
aF162146.49167969497
aF162146.49167969497
aF162146.49167969497
aF162146.49167969497
aI0
aI0
aI0
aI0
aI0
aI0
aI0
aI0
aI0
aI0
aI0
aI0
aI0
aI0
aI0
aI0
aI13
aI331
aI12
aI0
aI3
aI0
aI0
aI0
aI4
aI0
aI0
aI0
aI3
aI0
aI0
aI0
aI6
aI19
aI14
aI8
aI10
aI0
aI0
aI4
aI4
aI0
aI0
aI1
aI1
aI1
aI0
aI1
aI0
aI0
aI0
aI0
aI1
aI0
aI0
aI1
aI0
aI0
aI0
aI0
aI0
aI2
aI0
aI0
aI0
aI0
aI0
aI0
aI0
aI0
aI0
aI0
aI0
aI0
aI0
aI0
aI0
aI0
aI0
aI0
aI0
aI2
aI0
aI0
aI0
aI0
aI0
aI1
aI2
aI0
aI0
aI2
aI8
aI3
aI2
aI0
aI0
aI0
aI2
aI2
aI0
aI0
aI0
aI3
aI0
aI0
aI0
aI2
aI0
aI6
aI57
aI3
aI0
aI0
aI0
aI1
aI0
aI0
aI0
aI2
aI0
aI0
aI0
aI0
aI0
aI0
aI0
aI0
aI0
aI0
aI0
aI0
aI0
aI0
aI0
aI0
aI0
aI0
aI0
aI0
aI0
aI0
aI0
aI0
aI0
aI0
aI0
aI0
aI0
aI0
aI0
aI0
aI0
aI0
aI0
aI0
aI0
aI0
aI0
aI0
aI0
aI0
aI0
aI0
aI0
aI0
aI0
aI98
aI0
aI0
aI0
aI0
aI0
aI0
aI0
aI0
aI0
aI0
aI0
aI0
aI0
aI0
aI0
aI0
aI0
aI0
aI0
aI0
aI0
aI0
aI0
aI0
aI0
aI0
aI0
aI0
aI0
aI0
aI0
aI0
aI0
aI0
aI0
aI0
aI0
aI0
aI0
aI0
aI0
aI0
aI0
aI0
aI82
aI0
aI0
aI44
aI38
aI0
aI0
aI3
aI5
aI5
aI21
aI9
aI0
aI0
aI0
aI0
aI85
aI0
aI0
aI0
aI55
aI0
aI0
aI36
aI44
aI0
aI0
aI5
aI0
aI0
aI0
aI0
aI0
aI0
aI0
aI0
aI1
aI0
aI0
aI0
aI1
aI2
aI3
aI0
aI0
aI0
aI0
aI0
aI0
aI0
aI0
aI0
aI0
aI0
aI0
aI0
aI0
aI0
aI0
aI0
aI0
aI0
aI0
aI0
aI43
aI0
aI0
aI0
aI0
aI0
aI0
aI0
aI0
aI0
aI0
aI0
aI0
aI0
aI0
aI0
aI1
aI0
aI0
aI0
aI54
aI0
aI0
aI0
aI0
aI0
aI0
aI0
aI0
aI0
aI0
aI0
aI0
aI0
aI0
aI0
aI0
aI0
aI0
aI0
aI0
aI0
aI0
aI0
aa(lp54
F-23.397786025352037
aF-519.5954291822311
aF-89.27648796751852
aF1850.569136117507
aF22798.562874768573
aF1145.7868182633765
aF162947.7618686644
aF162947.7618686644
aF162947.7618686644
aF162947.7618686644
aF162947.7618686644
aF162947.7618686644
aF162947.7618686644
aF162947.7618686644
aF162947.7618686644
aF162947.7618686644
aI0
aI0
aI0
aI0
aI0
aI0
aI0
aI0
aI0
aI0
aI0
aI0
aI0
aI0
aI0
aI0
aI5
aI259
aI20
aI0
aI0
aI0
aI0
aI0
aI0
aI0
aI0
aI0
aI1
aI0
aI0
aI0
aI14
aI21
aI23
aI7
aI10
aI0
aI0
aI1
aI5
aI0
aI0
aI1
aI6
aI0
aI0
aI0
aI0
aI1
aI0
aI0
aI3
aI0
aI1
aI1
aI1
aI0
aI0
aI1
aI0
aI0
aI0
aI0
aI0
aI0
aI0
aI0
aI0
aI0
aI0
aI0
aI2
aI0
aI0
aI0
aI0
aI0
aI0
aI0
aI0
aI1
aI0
aI1
aI0
aI0
aI0
aI0
aI0
aI0
aI0
aI1
aI1
aI7
aI4
aI2
aI0
aI0
aI0
aI1
aI1
aI0
aI0
aI3
aI0
aI0
aI0
aI3
aI2
aI1
aI51
aI1
aI0
aI0
aI0
aI0
aI0
aI0
aI0
aI0
aI0
aI0
aI0
aI2
aI0
aI0
aI0
aI1
aI0
aI0
aI0
aI0
aI0
aI0
aI0
aI0
aI0
aI0
aI0
aI0
aI0
aI0
aI0
aI0
aI0
aI0
aI0
aI0
aI0
aI0
aI0
aI0
aI0
aI0
aI0
aI0
aI0
aI0
aI0
aI0
aI0
aI0
aI0
aI32
aI0
aI0
aI0
aI53
aI0
aI0
aI0
aI0
aI0
aI0
aI0
aI0
aI0
aI0
aI0
aI0
aI0
aI0
aI0
aI0
aI0
aI0
aI0
aI0
aI0
aI0
aI0
aI0
aI0
aI0
aI0
aI0
aI0
aI0
aI0
aI0
aI0
aI0
aI0
aI0
aI0
aI0
aI0
aI0
aI0
aI0
aI7
aI9
aI72
aI0
aI0
aI21
aI61
aI0
aI0
aI4
aI8
aI11
aI18
aI0
aI0
aI0
aI0
aI0
aI76
aI0
aI0
aI0
aI25
aI0
aI0
aI37
aI26
aI0
aI0
aI3
aI0
aI0
aI0
aI0
aI0
aI0
aI0
aI0
aI0
aI0
aI0
aI0
aI0
aI1
aI2
aI0
aI0
aI0
aI0
aI0
aI0
aI0
aI0
aI0
aI0
aI0
aI0
aI0
aI0
aI0
aI0
aI0
aI0
aI0
aI0
aI0
aI38
aI0
aI0
aI0
aI1
aI0
aI0
aI0
aI0
aI0
aI0
aI0
aI0
aI0
aI0
aI0
aI0
aI0
aI0
aI0
aI46
aI0
aI0
aI0
aI0
aI0
aI0
aI0
aI0
aI0
aI0
aI0
aI0
aI0
aI0
aI0
aI0
aI0
aI0
aI0
aI0
aI0
aI0
aI0
aa(lp55
F-66.74290450962027
aF-470.955220225667
aF-60.322811262322276
aF2078.164253203195
aF17575.30147453027
aF840.9285994388188
aF159557.5529781349
aF159557.5529781349
aF159557.5529781349
aF159557.5529781349
aF159557.5529781349
aF159557.5529781349
aF159557.5529781349
aF159557.5529781349
aF159557.5529781349
aF159557.5529781349
aI0
aI0
aI0
aI0
aI0
aI0
aI0
aI0
aI0
aI0
aI0
aI0
aI0
aI0
aI0
aI0
aI7
aI294
aI17
aI4
aI4
aI0
aI0
aI3
aI3
aI0
aI0
aI2
aI7
aI2
aI1
aI0
aI1
aI0
aI4
aI4
aI0
aI0
aI0
aI2
aI3
aI0
aI0
aI4
aI5
aI5
aI5
aI3
aI0
aI0
aI0
aI0
aI0
aI0
aI0
aI0
aI0
aI0
aI0
aI0
aI0
aI0
aI0
aI0
aI0
aI0
aI0
aI0
aI1
aI0
aI0
aI0
aI0
aI0
aI0
aI0
aI0
aI0
aI0
aI0
aI1
aI1
aI2
aI1
aI1
aI0
aI0
aI0
aI2
aI0
aI0
aI0
aI3
aI3
aI1
aI0
aI0
aI0
aI0
aI1
aI1
aI0
aI0
aI4
aI1
aI0
aI0
aI3
aI0
aI5
aI51
aI1
aI0
aI0
aI0
aI0
aI0
aI0
aI0
aI0
aI0
aI0
aI0
aI1
aI0
aI1
aI0
aI0
aI0
aI0
aI0
aI0
aI0
aI0
aI0
aI0
aI0
aI0
aI0
aI0
aI0
aI0
aI0
aI0
aI0
aI0
aI0
aI0
aI0
aI0
aI0
aI0
aI0
aI0
aI0
aI0
aI0
aI0
aI0
aI0
aI0
aI0
aI0
aI19
aI0
aI0
aI0
aI66
aI0
aI0
aI0
aI0
aI0
aI0
aI0
aI0
aI0
aI0
aI0
aI0
aI0
aI0
aI0
aI0
aI0
aI0
aI0
aI0
aI0
aI0
aI0
aI0
aI0
aI0
aI0
aI0
aI0
aI0
aI0
aI0
aI0
aI0
aI0
aI0
aI0
aI0
aI0
aI0
aI0
aI0
aI0
aI0
aI87
aI0
aI0
aI37
aI18
aI0
aI0
aI3
aI6
aI34
aI1
aI0
aI32
aI0
aI0
aI0
aI19
aI0
aI0
aI0
aI24
aI0
aI0
aI3
aI66
aI0
aI0
aI35
aI2
aI0
aI0
aI0
aI1
aI3
aI0
aI0
aI0
aI0
aI4
aI4
aI0
aI0
aI0
aI1
aI0
aI0
aI0
aI0
aI0
aI0
aI0
aI0
aI0
aI0
aI0
aI0
aI0
aI0
aI0
aI0
aI0
aI0
aI0
aI0
aI37
aI0
aI0
aI0
aI1
aI0
aI0
aI0
aI0
aI0
aI0
aI0
aI0
aI0
aI0
aI0
aI0
aI0
aI0
aI0
aI47
aI0
aI0
aI0
aI0
aI0
aI0
aI0
aI0
aI0
aI0
aI0
aI0
aI0
aI0
aI0
aI0
aI0
aI0
aI0
aI0
aI0
aI0
aI0
aa(lp56
F-14.325786080930857
aF-17.03608684274717
aF1.9615629409520392
aF12407.161936380422
aF1950.0880895098337
aF1917.605055404066
aF71886.33486731787
aF71886.33486731787
aF71886.33486731787
aF71886.33486731787
aF71886.33486731787
aF71886.33486731787
aF71886.33486731787
aF71886.33486731787
aF71886.33486731787
aF71886.33486731787
aI2
aI12
aI11
aI1
aI32
aI15
aI5
aI0
aI7
aI15
aI2
aI2
aI3
aI0
aI1
aI0
aI12
aI11
aI4
aI1
aI25
aI0
aI0
aI3
aI23
aI0
aI0
aI1
aI7
aI0
aI1
aI0
aI20
aI10
aI5
aI10
aI17
aI0
aI0
aI0
aI16
aI0
aI0
aI0
aI5
aI1
aI0
aI1
aI1
aI3
aI2
aI2
aI9
aI11
aI7
aI4
aI5
aI8
aI6
aI2
aI0
aI6
aI1
aI0
aI1
aI3
aI2
aI0
aI0
aI4
aI2
aI0
aI2
aI19
aI7
aI2
aI0
aI1
aI0
aI0
aI3
aI1
aI1
aI0
aI0
aI0
aI0
aI4
aI1
aI0
aI0
aI3
aI1
aI0
aI0
aI4
aI1
aI0
aI0
aI0
aI6
aI0
aI0
aI10
aI1
aI0
aI0
aI10
aI0
aI0
aI6
aI2
aI0
aI0
aI0
aI0
aI1
aI0
aI2
aI1
aI3
aI2
aI3
aI12
aI0
aI1
aI7
aI2
aI0
aI0
aI0
aI0
aI0
aI0
aI0
aI0
aI0
aI0
aI0
aI0
aI0
aI0
aI0
aI0
aI0
aI0
aI0
aI0
aI0
aI0
aI0
aI69
aI0
aI0
aI0
aI0
aI0
aI0
aI0
aI0
aI0
aI0
aI0
aI0
aI0
aI0
aI0
aI42
aI0
aI0
aI0
aI20
aI0
aI0
aI0
aI0
aI0
aI0
aI0
aI0
aI0
aI0
aI0
aI0
aI0
aI0
aI0
aI0
aI0
aI0
aI0
aI0
aI0
aI0
aI0
aI0
aI0
aI0
aI0
aI0
aI0
aI0
aI0
aI0
aI0
aI0
aI0
aI0
aI0
aI0
aI0
aI0
aI50
aI0
aI0
aI3
aI99
aI0
aI0
aI0
aI0
aI0
aI0
aI0
aI0
aI0
aI0
aI0
aI123
aI0
aI0
aI0
aI73
aI0
aI0
aI0
aI0
aI0
aI0
aI0
aI0
aI0
aI0
aI0
aI0
aI0
aI0
aI0
aI0
aI0
aI0
aI0
aI0
aI0
aI0
aI0
aI0
aI0
aI0
aI0
aI1
aI1
aI1
aI1
aI1
aI0
aI0
aI0
aI0
aI0
aI0
aI0
aI0
aI0
aI0
aI0
aI0
aI0
aI0
aI13
aI45
aI0
aI0
aI0
aI0
aI0
aI0
aI0
aI0
aI0
aI0
aI0
aI46
aI0
aI0
aI22
aI0
aI0
aI0
aI0
aI0
aI0
aI0
aI0
aI0
aI0
aI0
aI0
aI0
aI0
aI0
aI0
aI0
aI0
aI0
aI0
aI0
aI0
aI0
aI0
aa(lp57
F50.39468582945437
aF-11.004657434653948
aF-16.41873984922425
aF2024.3420424638468
aF4568.526760532844
aF606.0894322714157
aF0.05685899897474331
aF0.05685899897474331
aF0.05685899897474331
aF0.05685899897474331
aF0.05685899897474331
aF0.05685899897474331
aF0.05685899897474331
aF0.05685899897474331
aF0.05685899897474331
aF0.05685899897474331
aI0
aI0
aI0
aI0
aI0
aI0
aI0
aI0
aI0
aI0
aI0
aI0
aI0
aI0
aI0
aI0
aI0
aI0
aI0
aI0
aI0
aI0
aI0
aI1
aI1
aI0
aI0
aI0
aI0
aI0
aI0
aI0
aI1
aI1
aI0
aI10
aI2
aI0
aI0
aI0
aI10
aI0
aI0
aI0
aI1
aI0
aI0
aI0
aI0
aI3
aI1
aI0
aI4
aI6
aI2
aI0
aI3
aI0
aI1
aI0
aI1
aI10
aI0
aI0
aI1
aI1
aI2
aI1
aI2
aI1
aI1
aI1
aI5
aI1
aI1
aI5
aI0
aI0
aI0
aI0
aI2
aI1
aI1
aI1
aI3
aI0
aI0
aI11
aI5
aI0
aI0
aI1
aI5
aI1
aI0
aI0
aI0
aI2
aI0
aI3
aI10
aI0
aI0
aI3
aI20
aI0
aI0
aI5
aI0
aI0
aI1
aI1
aI0
aI1
aI0
aI0
aI3
aI0
aI1
aI0
aI3
aI3
aI1
aI2
aI0
aI0
aI0
aI0
aI0
aI0
aI0
aI0
aI0
aI0
aI0
aI0
aI0
aI0
aI0
aI0
aI0
aI0
aI0
aI0
aI0
aI0
aI0
aI10
aI0
aI0
aI0
aI77
aI0
aI0
aI0
aI0
aI0
aI0
aI0
aI0
aI0
aI0
aI0
aI0
aI0
aI0
aI0
aI24
aI0
aI0
aI0
aI1
aI0
aI0
aI0
aI0
aI0
aI0
aI0
aI0
aI0
aI0
aI0
aI0
aI0
aI0
aI0
aI0
aI0
aI0
aI0
aI0
aI0
aI0
aI0
aI0
aI0
aI0
aI0
aI0
aI0
aI0
aI0
aI0
aI0
aI0
aI0
aI0
aI0
aI0
aI0
aI0
aI0
aI0
aI0
aI0
aI40
aI0
aI0
aI0
aI0
aI0
aI0
aI0
aI0
aI0
aI0
aI0
aI18
aI0
aI0
aI0
aI0
aI0
aI0
aI0
aI0
aI0
aI0
aI0
aI0
aI0
aI0
aI0
aI0
aI0
aI0
aI0
aI0
aI0
aI0
aI0
aI0
aI0
aI0
aI0
aI0
aI2
aI1
aI0
aI0
aI0
aI0
aI2
aI0
aI34
aI1
aI1
aI0
aI0
aI0
aI0
aI1
aI0
aI0
aI0
aI2
aI0
aI0
aI10
aI0
aI0
aI0
aI2
aI0
aI0
aI0
aI0
aI0
aI0
aI0
aI0
aI13
aI0
aI0
aI0
aI0
aI0
aI0
aI0
aI0
aI0
aI0
aI0
aI0
aI0
aI0
aI0
aI1
aI1
aI0
aI7
aI0
aI32
aI2
aI0
aI0
aI0
aI0
aI0
aa(lp58
F-106.8167597764765
aF-24.537124372360832
aF85.44754302706077
aF4336.575611902538
aF529.5075593763423
aF1314.729553078744
aF111.58683700717427
aF111.58683700717427
aF111.58683700717427
aF111.58683700717427
aF111.58683700717427
aF111.58683700717427
aF111.58683700717427
aF111.58683700717427
aF111.58683700717427
aF111.58683700717427
aI0
aI1
aI3
aI0
aI3
aI9
aI8
aI6
aI4
aI4
aI8
aI2
aI0
aI1
aI1
aI0
aI0
aI0
aI0
aI1
aI1
aI0
aI0
aI1
aI1
aI0
aI0
aI2
aI1
aI2
aI1
aI0
aI0
aI1
aI3
aI0
aI1
aI0
aI0
aI1
aI2
aI0
aI0
aI1
aI1
aI5
aI3
aI1
aI0
aI0
aI1
aI0
aI2
aI1
aI11
aI3
aI0
aI2
aI7
aI3
aI0
aI11
aI6
aI2
aI0
aI2
aI2
aI2
aI0
aI2
aI1
aI1
aI0
aI5
aI6
aI0
aI1
aI2
aI2
aI0
aI2
aI0
aI1
aI0
aI1
aI0
aI0
aI1
aI4
aI0
aI0
aI1
aI0
aI0
aI1
aI2
aI0
aI0
aI0
aI1
aI1
aI0
aI0
aI3
aI5
aI0
aI0
aI2
aI2
aI0
aI1
aI0
aI0
aI0
aI2
aI0
aI0
aI3
aI9
aI2
aI18
aI11
aI4
aI3
aI0
aI0
aI2
aI0
aI0
aI0
aI0
aI0
aI0
aI0
aI0
aI0
aI0
aI0
aI0
aI0
aI0
aI0
aI0
aI0
aI0
aI0
aI0
aI0
aI0
aI0
aI0
aI67
aI0
aI0
aI0
aI0
aI0
aI0
aI0
aI0
aI0
aI0
aI0
aI0
aI0
aI0
aI0
aI41
aI0
aI0
aI0
aI0
aI0
aI0
aI0
aI0
aI0
aI0
aI0
aI0
aI0
aI0
aI0
aI0
aI0
aI0
aI0
aI0
aI0
aI0
aI0
aI0
aI0
aI0
aI0
aI0
aI0
aI0
aI0
aI0
aI0
aI0
aI0
aI0
aI0
aI0
aI0
aI0
aI0
aI0
aI0
aI0
aI26
aI0
aI0
aI3
aI25
aI0
aI0
aI2
aI0
aI0
aI0
aI0
aI0
aI0
aI0
aI0
aI33
aI0
aI0
aI0
aI39
aI0
aI0
aI0
aI0
aI0
aI0
aI0
aI0
aI0
aI0
aI0
aI0
aI0
aI0
aI0
aI0
aI0
aI0
aI0
aI0
aI0
aI0
aI0
aI0
aI0
aI0
aI0
aI0
aI0
aI0
aI0
aI0
aI0
aI37
aI0
aI0
aI0
aI0
aI0
aI0
aI0
aI0
aI24
aI0
aI0
aI0
aI0
aI0
aI0
aI0
aI0
aI0
aI0
aI0
aI0
aI0
aI0
aI1
aI2
aI0
aI0
aI0
aI0
aI0
aI0
aI0
aI0
aI0
aI0
aI0
aI0
aI0
aI1
aI1
aI0
aI2
aI40
aI0
aI0
aI0
aI0
aI0
aI0
aI0
aI0
aI0
aI0
aa(lp59
F31.20019931686965
aF17.282185930892034
aF-44.34252147687022
aF5.428762532494959
aF3.4972036094269803
aF9.102403942602345
aF9.60802898850249e-06
aF9.60802898850249e-06
aF9.60802898850249e-06
aF9.60802898850249e-06
aF9.60802898850249e-06
aF9.60802898850249e-06
aF9.60802898850249e-06
aF9.60802898850249e-06
aF9.60802898850249e-06
aF9.60802898850249e-06
aI0
aI0
aI0
aI0
aI0
aI0
aI0
aI0
aI0
aI0
aI0
aI0
aI0
aI0
aI0
aI0
aI0
aI0
aI0
aI0
aI0
aI0
aI0
aI1
aI0
aI0
aI0
aI1
aI2
aI1
aI1
aI0
aI0
aI1
aI2
aI2
aI0
aI0
aI0
aI0
aI0
aI0
aI0
aI0
aI3
aI1
aI0
aI0
aI0
aI1
aI2
aI0
aI0
aI1
aI0
aI0
aI1
aI1
aI0
aI0
aI0
aI0
aI0
aI0
aI0
aI3
aI0
aI0
aI16
aI12
aI2
aI3
aI9
aI8
aI5
aI3
aI0
aI2
aI0
aI1
aI2
aI1
aI1
aI3
aI11
aI0
aI0
aI1
aI3
aI0
aI0
aI0
aI3
aI3
aI3
aI0
aI2
aI0
aI1
aI0
aI5
aI0
aI0
aI0
aI3
aI0
aI0
aI0
aI0
aI0
aI0
aI0
aI0
aI0
aI0
aI0
aI0
aI2
aI0
aI0
aI3
aI1
aI8
aI0
aI1
aI1
aI1
aI0
aI0
aI0
aI0
aI0
aI0
aI0
aI0
aI0
aI0
aI0
aI0
aI0
aI0
aI0
aI0
aI0
aI0
aI0
aI0
aI0
aI0
aI0
aI0
aI75
aI0
aI0
aI0
aI0
aI0
aI0
aI0
aI0
aI0
aI0
aI0
aI0
aI0
aI0
aI0
aI48
aI0
aI0
aI0
aI0
aI0
aI0
aI0
aI0
aI0
aI0
aI0
aI0
aI0
aI0
aI0
aI0
aI0
aI0
aI0
aI0
aI0
aI0
aI0
aI0
aI0
aI0
aI0
aI0
aI0
aI0
aI0
aI0
aI0
aI0
aI0
aI0
aI0
aI0
aI0
aI0
aI0
aI0
aI0
aI0
aI14
aI0
aI0
aI0
aI4
aI0
aI0
aI0
aI0
aI0
aI0
aI0
aI0
aI0
aI0
aI0
aI2
aI0
aI0
aI0
aI1
aI0
aI0
aI0
aI0
aI0
aI0
aI0
aI0
aI0
aI0
aI0
aI0
aI0
aI0
aI0
aI0
aI0
aI0
aI0
aI0
aI0
aI0
aI0
aI0
aI0
aI0
aI0
aI0
aI0
aI3
aI3
aI0
aI32
aI3
aI0
aI0
aI0
aI0
aI0
aI0
aI0
aI0
aI0
aI0
aI0
aI0
aI39
aI0
aI0
aI0
aI0
aI0
aI0
aI0
aI0
aI0
aI0
aI0
aI0
aI0
aI0
aI0
aI0
aI0
aI0
aI0
aI0
aI0
aI0
aI0
aI0
aI0
aI0
aI0
aI0
aI10
aI9
aI2
aI0
aI5
aI17
aI0
aI0
aI0
aI0
aI0
aI0
aa(lp60
F-18.578990889956856
aF-50.124321912749984
aF28.259308132867478
aF13482.303797824145
aF1718.3002028250298
aF2519.895092669104
aF21.25801616185673
aF21.25801616185673
aF21.25801616185673
aF21.25801616185673
aF21.25801616185673
aF21.25801616185673
aF21.25801616185673
aF21.25801616185673
aF21.25801616185673
aF21.25801616185673
aI0
aI1
aI3
aI0
aI0
aI10
aI12
aI1
aI1
aI5
aI0
aI3
aI0
aI1
aI1
aI0
aI0
aI4
aI7
aI5
aI1
aI0
aI0
aI5
aI4
aI0
aI0
aI3
aI1
aI7
aI1
aI1
aI0
aI2
aI7
aI4
aI2
aI0
aI0
aI5
aI6
aI0
aI0
aI0
aI6
aI11
aI2
aI1
aI0
aI1
aI1
aI1
aI0
aI7
aI1
aI0
aI5
aI8
aI0
aI0
aI0
aI0
aI0
aI1
aI0
aI0
aI7
aI0
aI0
aI1
aI4
aI0
aI3
aI13
aI6
aI3
aI0
aI5
aI0
aI0
aI1
aI0
aI1
aI1
aI1
aI0
aI0
aI24
aI6
aI0
aI0
aI2
aI1
aI1
aI2
aI1
aI2
aI0
aI2
aI0
aI0
aI0
aI0
aI1
aI10
aI0
aI0
aI0
aI1
aI1
aI1
aI0
aI0
aI0
aI0
aI0
aI2
aI0
aI2
aI2
aI2
aI12
aI13
aI1
aI1
aI15
aI6
aI0
aI0
aI0
aI0
aI0
aI0
aI0
aI0
aI0
aI0
aI0
aI0
aI0
aI0
aI0
aI0
aI0
aI0
aI0
aI0
aI0
aI0
aI0
aI0
aI116
aI0
aI0
aI0
aI0
aI0
aI0
aI0
aI0
aI0
aI0
aI0
aI0
aI0
aI0
aI0
aI41
aI0
aI0
aI0
aI0
aI0
aI0
aI0
aI0
aI0
aI0
aI0
aI0
aI0
aI0
aI0
aI0
aI0
aI0
aI0
aI0
aI0
aI0
aI0
aI0
aI0
aI0
aI0
aI0
aI0
aI0
aI0
aI0
aI2
aI0
aI0
aI0
aI0
aI19
aI21
aI0
aI0
aI0
aI0
aI0
aI42
aI0
aI0
aI3
aI3
aI0
aI0
aI1
aI0
aI0
aI0
aI0
aI0
aI0
aI0
aI0
aI57
aI0
aI0
aI0
aI0
aI0
aI0
aI0
aI0
aI0
aI0
aI0
aI0
aI0
aI0
aI0
aI0
aI0
aI0
aI0
aI0
aI0
aI0
aI0
aI0
aI0
aI0
aI0
aI0
aI0
aI0
aI0
aI1
aI0
aI0
aI0
aI5
aI17
aI36
aI0
aI0
aI0
aI0
aI0
aI0
aI0
aI0
aI0
aI40
aI0
aI0
aI0
aI0
aI0
aI0
aI0
aI0
aI0
aI0
aI0
aI0
aI0
aI0
aI0
aI0
aI0
aI0
aI0
aI0
aI0
aI0
aI0
aI0
aI0
aI0
aI0
aI0
aI0
aI0
aI0
aI2
aI6
aI11
aI0
aI0
aI0
aI39
aI0
aI0
aI0
aI0
aI0
aa(lp61
F-47.9695849877613
aF-5.111975519850056
aF3.336829138567152
aF4771.306533588314
aF8.782850924010129
aF55.950613991432704
aF0.5074422877354136
aF0.5074422877354136
aF0.5074422877354136
aF0.5074422877354136
aF0.5074422877354136
aF0.5074422877354136
aF0.5074422877354136
aF0.5074422877354136
aF0.5074422877354136
aF0.5074422877354136
aI1
aI4
aI7
aI0
aI3
aI8
aI13
aI3
aI4
aI14
aI3
aI0
aI0
aI1
aI0
aI0
aI1
aI1
aI9
aI5
aI2
aI0
aI0
aI0
aI3
aI0
aI0
aI0
aI0
aI0
aI0
aI0
aI0
aI2
aI2
aI1
aI0
aI0
aI0
aI1
aI3
aI0
aI0
aI0
aI2
aI5
aI1
aI1
aI0
aI0
aI1
aI1
aI0
aI0
aI2
aI0
aI4
aI1
aI2
aI1
aI1
aI0
aI0
aI0
aI0
aI1
aI1
aI0
aI6
aI9
aI5
aI4
aI1
aI6
aI4
aI1
aI0
aI0
aI1
aI0
aI0
aI0
aI1
aI11
aI0
aI0
aI0
aI3
aI35
aI0
aI0
aI0
aI3
aI0
aI0
aI0
aI1
aI1
aI0
aI2
aI0
aI0
aI0
aI12
aI5
aI0
aI0
aI0
aI5
aI0
aI1
aI0
aI0
aI0
aI2
aI0
aI0
aI0
aI5
aI37
aI0
aI7
aI0
aI2
aI0
aI1
aI0
aI0
aI0
aI0
aI0
aI0
aI0
aI0
aI0
aI0
aI0
aI0
aI0
aI0
aI0
aI0
aI0
aI0
aI0
aI0
aI0
aI5
aI0
aI0
aI0
aI92
aI0
aI0
aI0
aI0
aI0
aI0
aI0
aI0
aI0
aI0
aI0
aI0
aI0
aI0
aI0
aI76
aI0
aI0
aI0
aI0
aI0
aI0
aI0
aI0
aI0
aI0
aI0
aI0
aI0
aI0
aI0
aI0
aI0
aI0
aI0
aI0
aI0
aI0
aI0
aI0
aI0
aI0
aI0
aI0
aI0
aI0
aI0
aI0
aI0
aI0
aI0
aI0
aI0
aI0
aI0
aI0
aI0
aI0
aI0
aI0
aI68
aI0
aI0
aI0
aI1
aI0
aI0
aI0
aI0
aI0
aI0
aI0
aI0
aI0
aI0
aI0
aI0
aI0
aI0
aI0
aI44
aI0
aI0
aI0
aI0
aI0
aI0
aI0
aI0
aI0
aI0
aI0
aI0
aI0
aI0
aI0
aI0
aI0
aI0
aI0
aI0
aI0
aI0
aI0
aI0
aI0
aI0
aI0
aI0
aI0
aI0
aI0
aI13
aI18
aI0
aI0
aI0
aI0
aI0
aI0
aI0
aI0
aI0
aI0
aI42
aI0
aI0
aI0
aI10
aI0
aI0
aI0
aI0
aI0
aI0
aI0
aI0
aI0
aI0
aI0
aI40
aI0
aI0
aI7
aI1
aI0
aI0
aI9
aI0
aI0
aI0
aI0
aI0
aI0
aI0
aI0
aI0
aI0
aI0
aI1
aI1
aI1
aI3
aI27
aI0
aI0
aI0
aI0
aa(lp62
F0.0
aF0.0
aF0.0
aI0
aI0
aI0
aF0.0
aF0.0
aF0.0
aF0.0
aF0.0
aF0.0
aF0.0
aF0.0
aF0.0
aF0.0
aI0
aI0
aI0
aI0
aI0
aI0
aI0
aI0
aI0
aI0
aI0
aI0
aI0
aI0
aI0
aI0
aI0
aI0
aI0
aI0
aI0
aI0
aI0
aI0
aI0
aI0
aI0
aI0
aI0
aI0
aI0
aI0
aI0
aI0
aI0
aI0
aI0
aI0
aI0
aI0
aI0
aI0
aI0
aI0
aI0
aI0
aI0
aI0
aI0
aI0
aI0
aI0
aI0
aI0
aI0
aI0
aI0
aI0
aI0
aI0
aI0
aI0
aI0
aI0
aI0
aI0
aI0
aI1
aI0
aI1
aI4
aI3
aI1
aI2
aI3
aI0
aI0
aI2
aI0
aI0
aI2
aI0
aI0
aI6
aI5
aI0
aI0
aI16
aI3
aI0
aI0
aI0
aI0
aI0
aI1
aI2
aI4
aI0
aI0
aI0
aI1
aI0
aI0
aI1
aI10
aI0
aI0
aI1
aI4
aI0
aI0
aI0
aI0
aI0
aI0
aI1
aI1
aI11
aI6
aI1
aI9
aI6
aI3
aI1
aI1
aI6
aI0
aI0
aI0
aI0
aI0
aI0
aI0
aI0
aI0
aI0
aI0
aI0
aI0
aI0
aI0
aI0
aI0
aI0
aI0
aI0
aI0
aI5
aI0
aI0
aI0
aI72
aI0
aI0
aI0
aI0
aI0
aI0
aI0
aI0
aI0
aI0
aI0
aI0
aI0
aI0
aI0
aI42
aI0
aI0
aI0
aI0
aI0
aI0
aI0
aI0
aI0
aI0
aI0
aI0
aI0
aI0
aI0
aI0
aI0
aI0
aI0
aI0
aI0
aI0
aI0
aI0
aI0
aI0
aI0
aI0
aI0
aI0
aI0
aI0
aI0
aI0
aI0
aI0
aI0
aI0
aI0
aI0
aI0
aI0
aI0
aI0
aI0
aI0
aI0
aI0
aI0
aI0
aI0
aI0
aI0
aI0
aI0
aI0
aI0
aI0
aI0
aI0
aI0
aI0
aI0
aI0
aI0
aI0
aI0
aI0
aI0
aI0
aI0
aI0
aI0
aI0
aI0
aI0
aI0
aI0
aI0
aI0
aI0
aI0
aI0
aI0
aI0
aI0
aI0
aI0
aI0
aI0
aI0
aI0
aI0
aI0
aI0
aI5
aI9
aI14
aI6
aI4
aI0
aI0
aI0
aI0
aI0
aI0
aI0
aI0
aI0
aI0
aI0
aI24
aI0
aI0
aI0
aI0
aI0
aI0
aI0
aI0
aI0
aI0
aI0
aI0
aI12
aI0
aI0
aI4
aI0
aI0
aI0
aI0
aI0
aI0
aI0
aI0
aI0
aI0
aI0
aI0
aI5
aI4
aI13
aI6
aI11
aI2
aI0
aI0
aI0
aI0
aI0
aI0
aa(lp63
F-2.8070966547969203
aF1.2007822259722125
aF-11.075842099324019
aF3901.747726547949
aF47.923385052872455
aF39.301285905541434
aF0.11882020347595787
aF0.11882020347595787
aF0.11882020347595787
aF0.11882020347595787
aF0.11882020347595787
aF0.11882020347595787
aF0.11882020347595787
aF0.11882020347595787
aF0.11882020347595787
aF0.11882020347595787
aI0
aI2
aI3
aI0
aI0
aI5
aI1
aI0
aI3
aI1
aI0
aI1
aI0
aI0
aI2
aI0
aI0
aI0
aI4
aI0
aI1
aI0
aI0
aI0
aI0
aI0
aI0
aI0
aI6
aI4
aI2
aI0
aI0
aI1
aI9
aI1
aI0
aI0
aI0
aI0
aI2
aI0
aI0
aI1
aI0
aI1
aI0
aI0
aI0
aI0
aI1
aI0
aI1
aI2
aI1
aI0
aI0
aI2
aI0
aI0
aI0
aI1
aI1
aI0
aI0
aI0
aI0
aI0
aI0
aI3
aI1
aI3
aI2
aI13
aI1
aI1
aI0
aI2
aI1
aI0
aI0
aI0
aI0
aI3
aI1
aI0
aI0
aI42
aI1
aI0
aI0
aI0
aI1
aI0
aI0
aI0
aI0
aI0
aI0
aI0
aI0
aI0
aI0
aI2
aI15
aI0
aI0
aI1
aI0
aI2
aI2
aI0
aI0
aI0
aI0
aI0
aI0
aI0
aI3
aI0
aI1
aI3
aI3
aI1
aI0
aI4
aI3
aI0
aI0
aI0
aI0
aI0
aI0
aI0
aI0
aI0
aI0
aI0
aI0
aI0
aI0
aI0
aI0
aI0
aI0
aI0
aI0
aI1
aI0
aI0
aI0
aI85
aI0
aI0
aI0
aI0
aI0
aI0
aI0
aI0
aI0
aI0
aI0
aI0
aI0
aI0
aI0
aI29
aI0
aI0
aI0
aI0
aI0
aI0
aI0
aI0
aI0
aI0
aI0
aI0
aI0
aI0
aI0
aI0
aI0
aI0
aI0
aI0
aI0
aI0
aI0
aI0
aI0
aI0
aI0
aI0
aI0
aI0
aI0
aI0
aI0
aI0
aI0
aI0
aI0
aI0
aI0
aI0
aI0
aI0
aI0
aI0
aI0
aI0
aI0
aI0
aI32
aI0
aI0
aI0
aI0
aI0
aI0
aI0
aI0
aI0
aI0
aI0
aI27
aI0
aI0
aI0
aI0
aI0
aI0
aI0
aI0
aI0
aI0
aI0
aI0
aI0
aI0
aI0
aI0
aI0
aI0
aI0
aI0
aI0
aI0
aI0
aI0
aI0
aI0
aI0
aI0
aI0
aI0
aI0
aI2
aI0
aI0
aI0
aI19
aI15
aI4
aI0
aI0
aI0
aI0
aI0
aI0
aI0
aI0
aI0
aI31
aI0
aI0
aI0
aI1
aI0
aI0
aI0
aI0
aI0
aI0
aI0
aI0
aI0
aI0
aI0
aI1
aI0
aI0
aI0
aI0
aI0
aI0
aI0
aI0
aI0
aI0
aI0
aI0
aI0
aI0
aI0
aI15
aI12
aI3
aI3
aI0
aI0
aI1
aI8
aI0
aI0
aI0
aI0
aa(lp64
F3.421872651192525
aF7.119355994089916
aF7.111588381591114
aF5037.691421938355
aF599.793016487858
aF1543.5092976811425
aF10.891077853006282
aF10.891077853006282
aF10.891077853006282
aF10.891077853006282
aF10.891077853006282
aF10.891077853006282
aF10.891077853006282
aF10.891077853006282
aF10.891077853006282
aF10.891077853006282
aI0
aI0
aI1
aI1
aI0
aI4
aI3
aI5
aI4
aI11
aI1
aI0
aI0
aI3
aI1
aI0
aI0
aI0
aI1
aI2
aI2
aI0
aI0
aI4
aI2
aI0
aI0
aI3
aI1
aI1
aI1
aI0
aI0
aI0
aI1
aI1
aI1
aI0
aI0
aI0
aI3
aI0
aI0
aI1
aI6
aI9
aI6
aI3
aI0
aI0
aI2
aI0
aI0
aI0
aI3
aI0
aI0
aI1
aI1
aI0
aI0
aI2
aI2
aI0
aI0
aI0
aI0
aI1
aI1
aI2
aI10
aI4
aI0
aI4
aI2
aI1
aI0
aI1
aI0
aI0
aI0
aI0
aI0
aI2
aI2
aI0
aI0
aI8
aI1
aI0
aI0
aI2
aI0
aI1
aI0
aI1
aI0
aI0
aI0
aI1
aI1
aI0
aI0
aI17
aI9
aI0
aI0
aI10
aI3
aI6
aI2
aI0
aI0
aI0
aI0
aI0
aI0
aI0
aI3
aI4
aI1
aI0
aI3
aI3
aI1
aI1
aI2
aI0
aI0
aI0
aI0
aI0
aI0
aI0
aI0
aI0
aI0
aI0
aI0
aI0
aI0
aI0
aI0
aI0
aI0
aI0
aI0
aI0
aI0
aI0
aI0
aI86
aI0
aI0
aI0
aI0
aI0
aI0
aI0
aI0
aI0
aI0
aI0
aI0
aI0
aI0
aI0
aI24
aI0
aI0
aI0
aI0
aI0
aI0
aI0
aI0
aI0
aI0
aI0
aI0
aI0
aI0
aI0
aI0
aI0
aI0
aI0
aI0
aI0
aI0
aI0
aI0
aI0
aI0
aI0
aI0
aI0
aI0
aI0
aI0
aI0
aI0
aI0
aI0
aI0
aI0
aI0
aI0
aI0
aI0
aI0
aI0
aI17
aI0
aI0
aI0
aI0
aI0
aI0
aI0
aI0
aI0
aI0
aI0
aI0
aI0
aI0
aI0
aI34
aI0
aI0
aI0
aI28
aI0
aI0
aI14
aI0
aI0
aI0
aI0
aI0
aI0
aI0
aI0
aI0
aI0
aI0
aI0
aI0
aI0
aI0
aI0
aI0
aI0
aI0
aI0
aI0
aI0
aI0
aI0
aI0
aI3
aI0
aI0
aI0
aI2
aI35
aI0
aI0
aI0
aI0
aI0
aI0
aI0
aI0
aI0
aI29
aI0
aI0
aI0
aI0
aI0
aI0
aI0
aI0
aI0
aI0
aI0
aI0
aI0
aI0
aI0
aI1
aI0
aI0
aI0
aI0
aI0
aI0
aI0
aI0
aI0
aI0
aI0
aI0
aI0
aI0
aI0
aI1
aI22
aI9
aI0
aI0
aI1
aI7
aI0
aI0
aI0
aI0
aI0
aa(lp65
F144.93113933839652
aF-67.0788355055862
aF29.864871447959853
aF1830.131099489749
aF86.56094624203203
aF23.47446023124603
aF0.0035826061329506573
aF0.0035826061329506573
aF0.0035826061329506573
aF0.0035826061329506573
aF0.0035826061329506573
aF0.0035826061329506573
aF0.0035826061329506573
aF0.0035826061329506573
aF0.0035826061329506573
aF0.0035826061329506573
aI0
aI2
aI4
aI0
aI4
aI2
aI0
aI0
aI0
aI1
aI1
aI0
aI0
aI2
aI0
aI0
aI0
aI0
aI4
aI2
aI1
aI0
aI0
aI2
aI2
aI0
aI0
aI0
aI2
aI1
aI0
aI0
aI0
aI0
aI0
aI0
aI0
aI0
aI0
aI0
aI0
aI0
aI0
aI0
aI0
aI4
aI0
aI0
aI0
aI0
aI2
aI0
aI0
aI0
aI8
aI1
aI0
aI0
aI1
aI0
aI0
aI0
aI0
aI0
aI0
aI0
aI0
aI3
aI1
aI4
aI20
aI8
aI2
aI4
aI1
aI0
aI0
aI3
aI1
aI0
aI0
aI0
aI0
aI14
aI5
aI0
aI0
aI12
aI3
aI0
aI0
aI0
aI2
aI1
aI0
aI0
aI0
aI0
aI1
aI4
aI1
aI0
aI0
aI1
aI10
aI0
aI0
aI1
aI6
aI0
aI0
aI0
aI0
aI0
aI0
aI0
aI0
aI3
aI1
aI1
aI12
aI3
aI4
aI0
aI4
aI3
aI0
aI0
aI0
aI0
aI0
aI0
aI0
aI0
aI0
aI0
aI0
aI0
aI0
aI0
aI0
aI0
aI0
aI0
aI0
aI0
aI0
aI6
aI0
aI0
aI0
aI124
aI0
aI0
aI0
aI0
aI0
aI0
aI0
aI0
aI0
aI0
aI0
aI0
aI0
aI0
aI0
aI9
aI0
aI0
aI0
aI0
aI0
aI0
aI0
aI0
aI0
aI0
aI0
aI0
aI0
aI0
aI0
aI0
aI0
aI0
aI0
aI0
aI0
aI0
aI0
aI0
aI0
aI0
aI0
aI0
aI0
aI0
aI0
aI0
aI0
aI0
aI0
aI0
aI0
aI0
aI0
aI0
aI0
aI0
aI0
aI0
aI36
aI0
aI0
aI0
aI6
aI0
aI0
aI0
aI0
aI0
aI0
aI0
aI0
aI0
aI0
aI0
aI0
aI0
aI0
aI0
aI4
aI0
aI0
aI0
aI0
aI0
aI0
aI0
aI0
aI0
aI0
aI0
aI0
aI0
aI0
aI0
aI0
aI0
aI0
aI0
aI0
aI0
aI0
aI0
aI0
aI0
aI0
aI0
aI2
aI0
aI0
aI0
aI10
aI15
aI6
aI17
aI0
aI0
aI0
aI0
aI0
aI0
aI0
aI0
aI30
aI0
aI0
aI0
aI1
aI0
aI0
aI3
aI0
aI0
aI0
aI0
aI0
aI0
aI0
aI0
aI14
aI0
aI0
aI0
aI0
aI0
aI0
aI0
aI0
aI0
aI0
aI0
aI0
aI0
aI0
aI0
aI20
aI2
aI0
aI3
aI0
aI0
aI3
aI13
aI0
aI0
aI0
aI0
aa(lp66
F-3.3767871261066715
aF-100.63175806791982
aF66.90799022161497
aF1900.8389623905089
aF2190.468480210617
aF2176.4424403148487
aF0.16329103256436547
aF0.16329103256436547
aF0.16329103256436547
aF0.16329103256436547
aF0.16329103256436547
aF0.16329103256436547
aF0.16329103256436547
aF0.16329103256436547
aF0.16329103256436547
aF0.16329103256436547
aI0
aI1
aI0
aI0
aI0
aI1
aI3
aI3
aI1
aI2
aI1
aI1
aI0
aI2
aI2
aI1
aI0
aI0
aI1
aI6
aI0
aI0
aI0
aI2
aI0
aI0
aI0
aI0
aI5
aI2
aI2
aI1
aI0
aI0
aI3
aI0
aI0
aI0
aI0
aI2
aI0
aI0
aI0
aI0
aI1
aI3
aI1
aI0
aI0
aI0
aI1
aI0
aI0
aI1
aI2
aI0
aI4
aI2
aI1
aI0
aI0
aI1
aI0
aI0
aI0
aI1
aI1
aI0
aI10
aI5
aI2
aI0
aI3
aI6
aI2
aI2
aI0
aI4
aI0
aI0
aI1
aI1
aI4
aI1
aI4
aI0
aI0
aI1
aI7
aI0
aI0
aI1
aI5
aI2
aI0
aI0
aI2
aI0
aI1
aI4
aI11
aI0
aI0
aI8
aI5
aI0
aI0
aI1
aI2
aI2
aI0
aI0
aI0
aI1
aI1
aI0
aI2
aI2
aI0
aI1
aI3
aI3
aI1
aI0
aI1
aI2
aI0
aI0
aI0
aI0
aI0
aI0
aI0
aI0
aI0
aI0
aI0
aI0
aI0
aI0
aI0
aI0
aI0
aI0
aI0
aI0
aI0
aI0
aI0
aI0
aI0
aI74
aI0
aI0
aI0
aI0
aI0
aI0
aI0
aI0
aI0
aI0
aI0
aI0
aI0
aI0
aI0
aI42
aI0
aI0
aI0
aI0
aI0
aI0
aI0
aI0
aI0
aI0
aI0
aI0
aI0
aI0
aI0
aI0
aI0
aI0
aI0
aI0
aI0
aI0
aI0
aI0
aI0
aI0
aI0
aI0
aI0
aI0
aI0
aI0
aI0
aI0
aI0
aI0
aI0
aI0
aI0
aI0
aI0
aI0
aI0
aI0
aI0
aI0
aI0
aI3
aI33
aI0
aI0
aI1
aI0
aI0
aI0
aI0
aI0
aI0
aI0
aI0
aI22
aI0
aI0
aI0
aI0
aI0
aI0
aI0
aI0
aI0
aI0
aI0
aI0
aI0
aI0
aI0
aI0
aI0
aI0
aI0
aI0
aI0
aI0
aI0
aI0
aI0
aI0
aI0
aI1
aI0
aI0
aI0
aI0
aI0
aI0
aI0
aI0
aI0
aI0
aI0
aI0
aI0
aI0
aI0
aI0
aI0
aI0
aI1
aI11
aI0
aI0
aI23
aI38
aI0
aI0
aI0
aI0
aI0
aI0
aI0
aI0
aI0
aI0
aI0
aI6
aI0
aI0
aI0
aI36
aI0
aI0
aI0
aI0
aI0
aI0
aI0
aI0
aI0
aI0
aI0
aI0
aI0
aI0
aI0
aI0
aI0
aI0
aI0
aI0
aI0
aI0
aI0
aa(lp67
F26.76288890685455
aF-31.611393450017975
aF-4.961922382706301
aF8165.718252815738
aF761.9488051598062
aF5516.427059707051
aF21.874024708509083
aF21.874024708509083
aF21.874024708509083
aF21.874024708509083
aF21.874024708509083
aF21.874024708509083
aF21.874024708509083
aF21.874024708509083
aF21.874024708509083
aF21.874024708509083
aI1
aI4
aI8
aI0
aI3
aI8
aI2
aI1
aI2
aI2
aI0
aI0
aI0
aI5
aI7
aI0
aI0
aI5
aI0
aI5
aI0
aI0
aI0
aI5
aI2
aI0
aI0
aI3
aI9
aI6
aI1
aI2
aI1
aI6
aI2
aI1
aI1
aI0
aI0
aI0
aI2
aI0
aI0
aI0
aI1
aI1
aI0
aI0
aI1
aI2
aI4
aI2
aI2
aI9
aI5
aI0
aI0
aI1
aI0
aI0
aI0
aI1
aI2
aI0
aI0
aI2
aI0
aI0
aI0
aI1
aI1
aI1
aI5
aI6
aI1
aI0
aI2
aI0
aI0
aI0
aI0
aI0
aI0
aI5
aI0
aI0
aI0
aI18
aI6
aI0
aI0
aI2
aI1
aI0
aI0
aI1
aI0
aI0
aI1
aI3
aI1
aI0
aI0
aI13
aI3
aI0
aI0
aI1
aI5
aI0
aI1
aI0
aI0
aI0
aI0
aI0
aI2
aI1
aI15
aI14
aI10
aI2
aI4
aI3
aI0
aI1
aI3
aI0
aI0
aI0
aI0
aI0
aI0
aI0
aI0
aI0
aI0
aI0
aI0
aI0
aI0
aI0
aI0
aI0
aI0
aI0
aI0
aI0
aI0
aI0
aI0
aI98
aI0
aI0
aI0
aI0
aI0
aI0
aI0
aI0
aI0
aI0
aI0
aI0
aI0
aI0
aI0
aI37
aI0
aI0
aI0
aI0
aI0
aI0
aI0
aI0
aI0
aI0
aI0
aI0
aI0
aI0
aI0
aI0
aI0
aI0
aI0
aI0
aI0
aI0
aI0
aI0
aI0
aI0
aI0
aI0
aI0
aI0
aI0
aI0
aI0
aI0
aI0
aI0
aI0
aI0
aI0
aI0
aI0
aI0
aI0
aI0
aI0
aI0
aI0
aI31
aI25
aI0
aI0
aI0
aI0
aI0
aI0
aI0
aI0
aI0
aI0
aI0
aI43
aI0
aI0
aI0
aI26
aI0
aI0
aI0
aI0
aI0
aI0
aI0
aI0
aI0
aI0
aI0
aI0
aI0
aI0
aI0
aI0
aI0
aI0
aI0
aI0
aI0
aI0
aI0
aI0
aI2
aI0
aI0
aI4
aI1
aI2
aI3
aI1
aI3
aI8
aI26
aI0
aI0
aI0
aI0
aI0
aI0
aI0
aI0
aI16
aI0
aI0
aI0
aI0
aI0
aI0
aI0
aI0
aI0
aI0
aI0
aI5
aI0
aI0
aI0
aI26
aI0
aI0
aI3
aI0
aI0
aI0
aI2
aI0
aI0
aI0
aI0
aI0
aI0
aI0
aI0
aI0
aI0
aI0
aI0
aI0
aI2
aI28
aI3
aI0
aI0
aI0
aI0
aa(lp68
F0.0
aF0.0
aF0.0
aI0
aI0
aI0
aF0.0
aF0.0
aF0.0
aF0.0
aF0.0
aF0.0
aF0.0
aF0.0
aF0.0
aF0.0
aI0
aI0
aI0
aI0
aI0
aI0
aI0
aI0
aI0
aI0
aI0
aI0
aI0
aI0
aI0
aI0
aI0
aI0
aI0
aI0
aI0
aI0
aI0
aI0
aI0
aI0
aI0
aI0
aI0
aI0
aI0
aI0
aI0
aI0
aI0
aI0
aI0
aI0
aI0
aI0
aI0
aI0
aI0
aI0
aI0
aI0
aI0
aI0
aI0
aI0
aI0
aI0
aI0
aI0
aI0
aI0
aI0
aI0
aI0
aI0
aI0
aI0
aI0
aI0
aI0
aI0
aI0
aI0
aI0
aI2
aI1
aI9
aI2
aI12
aI3
aI1
aI0
aI0
aI0
aI0
aI2
aI4
aI5
aI7
aI5
aI0
aI0
aI3
aI0
aI0
aI0
aI3
aI1
aI2
aI1
aI1
aI3
aI5
aI6
aI1
aI9
aI0
aI0
aI4
aI3
aI0
aI0
aI2
aI2
aI2
aI2
aI2
aI0
aI0
aI0
aI0
aI1
aI0
aI3
aI1
aI2
aI1
aI2
aI2
aI1
aI4
aI1
aI0
aI0
aI0
aI0
aI0
aI0
aI0
aI0
aI0
aI0
aI0
aI0
aI0
aI0
aI0
aI0
aI0
aI0
aI0
aI0
aI0
aI0
aI0
aI0
aI104
aI0
aI0
aI0
aI0
aI0
aI0
aI0
aI0
aI0
aI0
aI0
aI0
aI0
aI0
aI0
aI19
aI0
aI0
aI0
aI0
aI0
aI0
aI0
aI0
aI0
aI0
aI0
aI0
aI0
aI0
aI0
aI0
aI0
aI0
aI0
aI0
aI0
aI0
aI0
aI0
aI0
aI0
aI0
aI0
aI0
aI0
aI0
aI0
aI0
aI0
aI0
aI0
aI0
aI0
aI0
aI0
aI0
aI0
aI0
aI0
aI0
aI0
aI0
aI0
aI0
aI0
aI0
aI0
aI0
aI0
aI0
aI0
aI0
aI0
aI0
aI0
aI0
aI0
aI0
aI0
aI0
aI0
aI0
aI0
aI0
aI0
aI0
aI0
aI0
aI0
aI0
aI0
aI0
aI0
aI0
aI0
aI0
aI0
aI0
aI0
aI0
aI0
aI0
aI0
aI0
aI0
aI0
aI0
aI0
aI0
aI0
aI0
aI0
aI0
aI0
aI0
aI0
aI0
aI0
aI0
aI0
aI0
aI0
aI0
aI34
aI0
aI0
aI0
aI43
aI0
aI0
aI0
aI0
aI0
aI0
aI0
aI0
aI0
aI0
aI0
aI6
aI0
aI0
aI0
aI40
aI0
aI0
aI0
aI0
aI0
aI0
aI0
aI0
aI0
aI0
aI0
aI0
aI0
aI0
aI0
aI0
aI0
aI0
aI0
aI0
aI0
aI0
aI0
aa(lp69
F219.29232520301062
aF1.9386896277757393
aF37.76725780514872
aF4462.518481893836
aF50.69759766330408
aF19.04606661521718
aF0.2669649232318654
aF0.2669649232318654
aF0.2669649232318654
aF0.2669649232318654
aF0.2669649232318654
aF0.2669649232318654
aF0.2669649232318654
aF0.2669649232318654
aF0.2669649232318654
aF0.2669649232318654
aI1
aI0
aI0
aI1
aI2
aI0
aI0
aI1
aI0
aI0
aI0
aI0
aI0
aI0
aI0
aI0
aI0
aI0
aI0
aI1
aI2
aI0
aI0
aI1
aI2
aI0
aI0
aI0
aI1
aI1
aI0
aI1
aI0
aI2
aI0
aI0
aI0
aI0
aI0
aI0
aI1
aI0
aI0
aI2
aI0
aI1
aI1
aI1
aI0
aI0
aI1
aI0
aI0
aI0
aI9
aI0
aI0
aI4
aI1
aI0
aI0
aI2
aI0
aI0
aI0
aI0
aI4
aI0
aI0
aI4
aI11
aI0
aI0
aI3
aI1
aI0
aI0
aI2
aI0
aI0
aI0
aI0
aI0
aI0
aI0
aI0
aI0
aI0
aI1
aI0
aI0
aI2
aI0
aI0
aI1
aI0
aI0
aI0
aI0
aI0
aI0
aI0
aI0
aI3
aI3
aI0
aI0
aI6
aI1
aI0
aI0
aI0
aI0
aI0
aI1
aI1
aI0
aI3
aI3
aI2
aI2
aI1
aI4
aI1
aI0
aI2
aI3
aI1
aI0
aI0
aI0
aI0
aI0
aI0
aI0
aI0
aI0
aI0
aI0
aI0
aI0
aI0
aI0
aI0
aI0
aI0
aI0
aI0
aI0
aI0
aI0
aI43
aI0
aI0
aI0
aI0
aI0
aI0
aI0
aI0
aI0
aI0
aI0
aI0
aI0
aI0
aI0
aI23
aI0
aI0
aI0
aI0
aI0
aI0
aI0
aI0
aI0
aI0
aI0
aI0
aI0
aI0
aI0
aI0
aI0
aI0
aI0
aI0
aI0
aI0
aI0
aI0
aI0
aI0
aI0
aI0
aI0
aI0
aI0
aI0
aI0
aI0
aI0
aI0
aI0
aI0
aI0
aI0
aI0
aI0
aI0
aI0
aI6
aI0
aI0
aI0
aI20
aI0
aI0
aI0
aI0
aI0
aI0
aI0
aI0
aI0
aI0
aI0
aI13
aI0
aI0
aI0
aI0
aI0
aI0
aI0
aI0
aI0
aI0
aI0
aI0
aI0
aI0
aI0
aI0
aI0
aI0
aI0
aI0
aI0
aI0
aI0
aI0
aI0
aI0
aI0
aI0
aI0
aI0
aI0
aI1
aI0
aI1
aI0
aI0
aI0
aI0
aI0
aI0
aI0
aI0
aI0
aI0
aI0
aI0
aI0
aI17
aI0
aI0
aI0
aI18
aI0
aI0
aI0
aI0
aI0
aI0
aI0
aI0
aI0
aI0
aI0
aI16
aI0
aI0
aI2
aI11
aI0
aI0
aI0
aI0
aI0
aI0
aI0
aI0
aI0
aI0
aI0
aI0
aI0
aI0
aI0
aI0
aI0
aI0
aI0
aI0
aI0
aI0
aI0
aa(lp70
F14.697187575826282
aF436.45505278643816
aF56.60478770550669
aF1318.9311858125936
aF17771.227927341602
aF1221.3249541100104
aF154501.99680890443
aF154501.99680890443
aF154501.99680890443
aF154501.99680890443
aF154501.99680890443
aF154501.99680890443
aF154501.99680890443
aF154501.99680890443
aF154501.99680890443
aF154501.99680890443
aI0
aI0
aI0
aI0
aI3
aI0
aI0
aI0
aI0
aI0
aI0
aI0
aI0
aI0
aI0
aI0
aI4
aI20
aI4
aI1
aI1
aI0
aI0
aI0
aI1
aI0
aI0
aI0
aI1
aI0
aI76
aI17
aI8
aI22
aI31
aI10
aI0
aI0
aI0
aI2
aI2
aI0
aI0
aI0
aI0
aI117
aI87
aI0
aI0
aI6
aI3
aI0
aI2
aI1
aI0
aI2
aI0
aI0
aI0
aI1
aI0
aI1
aI0
aI0
aI0
aI0
aI0
aI0
aI1
aI1
aI0
aI0
aI0
aI0
aI0
aI0
aI0
aI0
aI0
aI0
aI2
aI20
aI25
aI1
aI1
aI0
aI0
aI0
aI1
aI0
aI0
aI2
aI4
aI7
aI9
aI0
aI2
aI10
aI5
aI0
aI0
aI0
aI0
aI0
aI0
aI0
aI0
aI0
aI0
aI1
aI0
aI3
aI0
aI0
aI0
aI0
aI0
aI0
aI0
aI0
aI0
aI0
aI0
aI0
aI0
aI0
aI0
aI0
aI0
aI0
aI0
aI0
aI0
aI0
aI0
aI0
aI0
aI0
aI0
aI0
aI0
aI0
aI0
aI0
aI0
aI0
aI0
aI0
aI0
aI0
aI0
aI0
aI0
aI0
aI0
aI0
aI0
aI0
aI0
aI0
aI0
aI0
aI0
aI8
aI0
aI0
aI0
aI87
aI0
aI0
aI0
aI0
aI0
aI0
aI0
aI0
aI0
aI0
aI0
aI0
aI0
aI0
aI0
aI0
aI0
aI0
aI0
aI0
aI0
aI0
aI0
aI0
aI0
aI1
aI1
aI1
aI0
aI0
aI0
aI0
aI0
aI0
aI0
aI0
aI0
aI0
aI0
aI0
aI0
aI0
aI0
aI1
aI113
aI0
aI0
aI38
aI82
aI0
aI0
aI0
aI0
aI0
aI0
aI0
aI0
aI0
aI0
aI0
aI104
aI0
aI0
aI0
aI82
aI0
aI0
aI0
aI0
aI0
aI0
aI0
aI0
aI0
aI0
aI0
aI0
aI0
aI0
aI0
aI0
aI0
aI0
aI0
aI0
aI0
aI0
aI0
aI0
aI0
aI0
aI0
aI0
aI0
aI0
aI0
aI0
aI0
aI0
aI0
aI0
aI0
aI0
aI0
aI0
aI0
aI49
aI0
aI0
aI0
aI0
aI0
aI0
aI0
aI0
aI0
aI0
aI0
aI0
aI0
aI0
aI0
aI3
aI2
aI0
aI0
aI0
aI1
aI0
aI0
aI0
aI1
aI0
aI28
aI10
aI1
aI0
aI0
aI0
aI0
aI0
aI0
aI0
aI0
aI0
aI0
aI0
aI0
aI0
aI0
aI0
aI0
aa(lp71
F26.99794015649998
aF322.79078654377616
aF20.072621295180486
aF1365.5608595863107
aF18925.87842018561
aF957.1735052545646
aF166809.40555116738
aF166809.40555116738
aF166809.40555116738
aF166809.40555116738
aF166809.40555116738
aF166809.40555116738
aF166809.40555116738
aF166809.40555116738
aF166809.40555116738
aF166809.40555116738
aI0
aI0
aI0
aI0
aI1
aI0
aI0
aI0
aI1
aI0
aI0
aI0
aI0
aI0
aI0
aI0
aI6
aI8
aI1
aI1
aI6
aI0
aI0
aI1
aI6
aI0
aI0
aI2
aI6
aI16
aI51
aI2
aI6
aI10
aI3
aI4
aI1
aI0
aI0
aI3
aI5
aI0
aI0
aI1
aI5
aI112
aI140
aI5
aI2
aI8
aI0
aI0
aI3
aI12
aI8
aI4
aI4
aI11
aI9
aI1
aI0
aI10
aI23
aI1
aI0
aI3
aI1
aI2
aI0
aI2
aI4
aI0
aI1
aI2
aI1
aI1
aI1
aI1
aI0
aI0
aI6
aI30
aI22
aI0
aI3
aI0
aI0
aI0
aI2
aI0
aI0
aI0
aI2
aI1
aI0
aI1
aI1
aI5
aI12
aI2
aI0
aI0
aI0
aI1
aI0
aI0
aI0
aI0
aI0
aI0
aI1
aI0
aI0
aI0
aI0
aI0
aI0
aI0
aI1
aI0
aI0
aI0
aI1
aI1
aI0
aI0
aI0
aI0
aI0
aI0
aI0
aI0
aI0
aI0
aI0
aI0
aI0
aI0
aI0
aI0
aI0
aI0
aI0
aI0
aI0
aI0
aI0
aI0
aI0
aI0
aI0
aI0
aI0
aI0
aI0
aI0
aI0
aI0
aI0
aI0
aI0
aI0
aI0
aI0
aI0
aI0
aI0
aI111
aI0
aI0
aI0
aI0
aI0
aI0
aI0
aI0
aI0
aI0
aI0
aI0
aI0
aI0
aI0
aI0
aI0
aI0
aI0
aI0
aI0
aI0
aI0
aI0
aI0
aI0
aI0
aI0
aI0
aI0
aI0
aI0
aI0
aI0
aI0
aI0
aI0
aI0
aI0
aI0
aI0
aI0
aI0
aI0
aI110
aI0
aI0
aI53
aI68
aI0
aI0
aI2
aI0
aI0
aI0
aI0
aI0
aI0
aI0
aI0
aI111
aI0
aI0
aI0
aI155
aI0
aI0
aI0
aI0
aI0
aI0
aI0
aI0
aI0
aI0
aI0
aI0
aI0
aI0
aI0
aI0
aI0
aI0
aI0
aI0
aI0
aI0
aI0
aI0
aI0
aI0
aI0
aI0
aI0
aI0
aI0
aI0
aI0
aI0
aI0
aI0
aI0
aI0
aI0
aI0
aI0
aI0
aI0
aI51
aI0
aI0
aI0
aI0
aI0
aI0
aI0
aI0
aI0
aI0
aI0
aI0
aI0
aI0
aI0
aI7
aI0
aI0
aI0
aI53
aI0
aI0
aI0
aI0
aI0
aI0
aI0
aI0
aI0
aI0
aI0
aI0
aI0
aI0
aI0
aI0
aI0
aI0
aI0
aI0
aI0
aI0
aI0
aa(lp72
F21.345677097433434
aF376.285030540463
aF26.493038100524455
aF1259.349699195919
aF22436.522737133815
aF1005.9550802539624
aF158257.70221835282
aF158257.70221835282
aF158257.70221835282
aF158257.70221835282
aF158257.70221835282
aF158257.70221835282
aF158257.70221835282
aF158257.70221835282
aF158257.70221835282
aF158257.70221835282
aI0
aI0
aI0
aI0
aI0
aI0
aI0
aI0
aI1
aI0
aI0
aI0
aI4
aI0
aI0
aI0
aI1
aI0
aI1
aI0
aI1
aI0
aI0
aI0
aI0
aI0
aI0
aI1
aI1
aI4
aI71
aI17
aI3
aI13
aI9
aI6
aI2
aI0
aI0
aI3
aI0
aI0
aI0
aI7
aI3
aI155
aI100
aI7
aI0
aI0
aI0
aI0
aI0
aI0
aI0
aI6
aI0
aI3
aI5
aI6
aI0
aI9
aI18
aI3
aI0
aI2
aI3
aI1
aI0
aI0
aI0
aI0
aI0
aI0
aI0
aI0
aI0
aI0
aI0
aI0
aI1
aI21
aI34
aI4
aI5
aI0
aI0
aI1
aI4
aI0
aI0
aI1
aI4
aI0
aI0
aI0
aI0
aI3
aI10
aI4
aI0
aI0
aI0
aI3
aI0
aI0
aI0
aI0
aI0
aI0
aI0
aI0
aI0
aI0
aI0
aI1
aI0
aI0
aI0
aI1
aI0
aI0
aI0
aI0
aI0
aI0
aI0
aI0
aI0
aI0
aI0
aI0
aI0
aI0
aI0
aI0
aI0
aI0
aI0
aI0
aI0
aI0
aI0
aI0
aI0
aI0
aI0
aI0
aI0
aI0
aI0
aI0
aI0
aI0
aI0
aI0
aI0
aI0
aI0
aI0
aI0
aI0
aI0
aI0
aI0
aI0
aI0
aI103
aI0
aI0
aI0
aI0
aI0
aI0
aI0
aI0
aI0
aI0
aI0
aI0
aI0
aI0
aI0
aI0
aI0
aI0
aI0
aI0
aI0
aI0
aI0
aI0
aI0
aI0
aI0
aI0
aI0
aI0
aI0
aI0
aI0
aI0
aI0
aI0
aI0
aI0
aI0
aI0
aI0
aI0
aI0
aI0
aI96
aI0
aI0
aI49
aI108
aI0
aI0
aI1
aI0
aI0
aI0
aI0
aI0
aI0
aI0
aI0
aI99
aI0
aI0
aI0
aI107
aI0
aI0
aI0
aI0
aI0
aI0
aI0
aI0
aI0
aI0
aI0
aI0
aI0
aI0
aI0
aI0
aI0
aI0
aI0
aI0
aI0
aI0
aI0
aI0
aI0
aI0
aI0
aI0
aI0
aI0
aI0
aI0
aI0
aI0
aI0
aI0
aI0
aI0
aI0
aI0
aI0
aI0
aI0
aI42
aI0
aI0
aI0
aI0
aI0
aI0
aI0
aI0
aI0
aI0
aI0
aI0
aI0
aI0
aI0
aI10
aI0
aI0
aI0
aI51
aI0
aI0
aI0
aI0
aI0
aI0
aI0
aI0
aI0
aI0
aI0
aI0
aI0
aI0
aI0
aI0
aI0
aI0
aI0
aI0
aI0
aI0
aI0
aa(lp73
F23.37410461601649
aF409.58070574552664
aF33.89877578911912
aF1266.332741068131
aF27038.505885006365
aF941.5776635347722
aF152520.91138417504
aF152520.91138417504
aF152520.91138417504
aF152520.91138417504
aF152520.91138417504
aF152520.91138417504
aF152520.91138417504
aF152520.91138417504
aF152520.91138417504
aF152520.91138417504
aI0
aI1
aI2
aI1
aI1
aI1
aI1
aI1
aI2
aI1
aI1
aI3
aI1
aI3
aI2
aI1
aI1
aI6
aI5
aI2
aI3
aI0
aI0
aI2
aI2
aI0
aI0
aI5
aI3
aI7
aI100
aI26
aI0
aI0
aI0
aI1
aI0
aI0
aI0
aI0
aI1
aI0
aI0
aI0
aI1
aI149
aI81
aI1
aI0
aI0
aI0
aI0
aI3
aI3
aI1
aI0
aI2
aI14
aI26
aI0
aI0
aI10
aI12
aI0
aI0
aI3
aI1
aI0
aI0
aI13
aI2
aI0
aI0
aI0
aI0
aI0
aI1
aI0
aI0
aI0
aI4
aI24
aI26
aI0
aI3
aI0
aI0
aI0
aI3
aI0
aI0
aI1
aI2
aI0
aI1
aI0
aI0
aI8
aI10
aI0
aI0
aI0
aI0
aI2
aI1
aI0
aI0
aI1
aI0
aI0
aI0
aI2
aI0
aI0
aI1
aI1
aI0
aI0
aI1
aI0
aI0
aI0
aI1
aI1
aI0
aI0
aI0
aI0
aI0
aI0
aI0
aI0
aI0
aI0
aI0
aI0
aI0
aI0
aI0
aI0
aI0
aI0
aI0
aI0
aI0
aI0
aI0
aI0
aI0
aI0
aI0
aI0
aI0
aI0
aI0
aI0
aI0
aI0
aI0
aI0
aI0
aI0
aI0
aI0
aI0
aI0
aI0
aI110
aI0
aI0
aI0
aI3
aI0
aI0
aI0
aI0
aI0
aI0
aI0
aI0
aI0
aI0
aI0
aI0
aI0
aI0
aI0
aI0
aI0
aI0
aI0
aI0
aI0
aI0
aI0
aI0
aI0
aI0
aI0
aI0
aI0
aI0
aI0
aI0
aI0
aI0
aI0
aI0
aI0
aI0
aI0
aI0
aI102
aI0
aI0
aI49
aI87
aI0
aI0
aI0
aI0
aI0
aI0
aI0
aI0
aI0
aI0
aI0
aI103
aI0
aI0
aI0
aI148
aI0
aI0
aI0
aI0
aI0
aI0
aI0
aI0
aI0
aI0
aI0
aI0
aI0
aI0
aI0
aI0
aI0
aI0
aI0
aI0
aI0
aI0
aI0
aI0
aI0
aI0
aI0
aI0
aI0
aI0
aI0
aI0
aI0
aI0
aI0
aI0
aI0
aI0
aI0
aI0
aI0
aI0
aI0
aI47
aI0
aI0
aI0
aI0
aI0
aI0
aI0
aI0
aI0
aI0
aI0
aI0
aI0
aI0
aI0
aI6
aI0
aI0
aI0
aI60
aI0
aI0
aI0
aI0
aI0
aI0
aI0
aI0
aI0
aI0
aI0
aI0
aI0
aI0
aI0
aI0
aI0
aI0
aI0
aI0
aI0
aI0
aI0
aa(lp74
F42.58641380448755
aF422.9522320856419
aF14.390568043078122
aF1427.8175075176373
aF20041.905111990567
aF993.2521942661206
aF188380.70282190538
aF188380.70282190538
aF188380.70282190538
aF188380.70282190538
aF188380.70282190538
aF188380.70282190538
aF188380.70282190538
aF188380.70282190538
aF188380.70282190538
aF188380.70282190538
aI0
aI0
aI0
aI0
aI0
aI0
aI0
aI0
aI0
aI0
aI0
aI0
aI0
aI0
aI0
aI0
aI0
aI0
aI0
aI0
aI0
aI0
aI0
aI0
aI2
aI0
aI0
aI0
aI1
aI0
aI48
aI5
aI0
aI0
aI0
aI0
aI0
aI0
aI0
aI0
aI1
aI0
aI0
aI0
aI2
aI179
aI126
aI10
aI1
aI2
aI3
aI0
aI0
aI14
aI14
aI0
aI4
aI23
aI2
aI0
aI0
aI22
aI2
aI0
aI0
aI1
aI3
aI0
aI0
aI0
aI7
aI0
aI0
aI2
aI6
aI0
aI0
aI0
aI2
aI0
aI3
aI21
aI38
aI0
aI4
aI0
aI0
aI0
aI1
aI0
aI0
aI0
aI0
aI0
aI0
aI0
aI1
aI5
aI4
aI2
aI0
aI0
aI0
aI1
aI0
aI0
aI0
aI0
aI0
aI0
aI0
aI0
aI0
aI0
aI0
aI0
aI0
aI0
aI0
aI0
aI0
aI0
aI0
aI0
aI0
aI0
aI0
aI0
aI0
aI0
aI0
aI0
aI0
aI0
aI0
aI0
aI0
aI0
aI0
aI0
aI0
aI0
aI0
aI0
aI0
aI0
aI0
aI0
aI0
aI0
aI0
aI0
aI0
aI0
aI0
aI0
aI0
aI0
aI0
aI0
aI0
aI0
aI0
aI0
aI0
aI0
aI0
aI101
aI0
aI0
aI0
aI0
aI0
aI0
aI0
aI0
aI0
aI0
aI0
aI0
aI0
aI0
aI0
aI0
aI0
aI0
aI0
aI0
aI0
aI0
aI0
aI0
aI0
aI0
aI0
aI0
aI0
aI0
aI0
aI0
aI0
aI0
aI0
aI0
aI0
aI0
aI0
aI0
aI0
aI0
aI0
aI0
aI101
aI0
aI0
aI50
aI57
aI0
aI0
aI8
aI0
aI0
aI0
aI0
aI0
aI0
aI0
aI0
aI103
aI0
aI0
aI0
aI142
aI0
aI0
aI0
aI0
aI0
aI0
aI0
aI0
aI0
aI0
aI0
aI0
aI0
aI0
aI0
aI0
aI0
aI0
aI0
aI0
aI0
aI0
aI0
aI0
aI0
aI0
aI0
aI0
aI0
aI0
aI0
aI0
aI0
aI0
aI0
aI0
aI0
aI0
aI0
aI48
aI0
aI0
aI0
aI0
aI0
aI0
aI0
aI0
aI0
aI0
aI0
aI0
aI0
aI0
aI0
aI5
aI0
aI0
aI0
aI1
aI0
aI0
aI0
aI13
aI0
aI0
aI0
aI27
aI7
aI0
aI0
aI0
aI0
aI0
aI0
aI0
aI0
aI0
aI0
aI0
aI0
aI0
aI0
aI0
aI0
aI0
aI0
aa(lp75
F13.268582630204344
aF265.17743713678226
aF-1.791196389708653
aF1173.2938889931975
aF7533.870093338409
aF1212.9864693909954
aF193078.39074332852
aF193078.39074332852
aF193078.39074332852
aF193078.39074332852
aF193078.39074332852
aF193078.39074332852
aF193078.39074332852
aF193078.39074332852
aF193078.39074332852
aF193078.39074332852
aI0
aI0
aI5
aI0
aI0
aI0
aI10
aI8
aI4
aI1
aI0
aI1
aI0
aI0
aI0
aI0
aI1
aI1
aI6
aI0
aI0
aI0
aI0
aI1
aI0
aI0
aI0
aI1
aI1
aI23
aI48
aI0
aI1
aI14
aI5
aI3
aI2
aI0
aI0
aI3
aI0
aI0
aI0
aI0
aI1
aI194
aI83
aI0
aI0
aI3
aI4
aI0
aI1
aI0
aI3
aI10
aI2
aI2
aI8
aI1
aI0
aI2
aI14
aI0
aI0
aI2
aI1
aI0
aI0
aI1
aI0
aI0
aI0
aI0
aI0
aI1
aI1
aI1
aI0
aI0
aI1
aI17
aI51
aI1
aI0
aI0
aI0
aI0
aI0
aI0
aI0
aI1
aI0
aI1
aI0
aI1
aI0
aI3
aI4
aI0
aI0
aI0
aI0
aI0
aI2
aI0
aI0
aI0
aI1
aI3
aI1
aI1
aI0
aI0
aI0
aI0
aI0
aI0
aI0
aI0
aI0
aI2
aI1
aI0
aI0
aI4
aI0
aI0
aI0
aI0
aI0
aI0
aI0
aI0
aI0
aI0
aI0
aI0
aI0
aI0
aI0
aI0
aI0
aI0
aI0
aI0
aI0
aI0
aI0
aI0
aI0
aI0
aI0
aI0
aI0
aI0
aI0
aI0
aI0
aI0
aI0
aI0
aI0
aI0
aI0
aI0
aI0
aI55
aI0
aI0
aI0
aI47
aI0
aI0
aI0
aI0
aI0
aI0
aI0
aI0
aI0
aI0
aI0
aI0
aI0
aI0
aI0
aI0
aI0
aI0
aI0
aI0
aI0
aI0
aI0
aI0
aI0
aI0
aI0
aI0
aI0
aI0
aI0
aI0
aI0
aI0
aI0
aI0
aI0
aI0
aI0
aI0
aI112
aI0
aI0
aI51
aI92
aI0
aI0
aI8
aI0
aI0
aI0
aI0
aI0
aI0
aI0
aI0
aI112
aI0
aI0
aI0
aI92
aI0
aI0
aI0
aI0
aI0
aI0
aI0
aI0
aI0
aI0
aI0
aI0
aI0
aI0
aI0
aI0
aI0
aI0
aI0
aI0
aI0
aI0
aI0
aI0
aI0
aI0
aI0
aI0
aI0
aI0
aI0
aI0
aI0
aI0
aI0
aI0
aI0
aI0
aI0
aI1
aI17
aI39
aI0
aI1
aI0
aI0
aI0
aI0
aI0
aI0
aI0
aI0
aI0
aI0
aI0
aI0
aI0
aI0
aI0
aI0
aI0
aI0
aI0
aI1
aI0
aI0
aI0
aI1
aI37
aI5
aI0
aI0
aI0
aI0
aI0
aI0
aI0
aI0
aI0
aI0
aI0
aI0
aI0
aI0
aI0
aI0
aI0
aa(lp76
F35.53017801676715
aF348.6052477921529
aF14.040912607376955
aF1601.3585145284692
aF14877.367457435672
aF1013.4458836288496
aF68973.19802847468
aF68973.19802847468
aF68973.19802847468
aF68973.19802847468
aF68973.19802847468
aF68973.19802847468
aF68973.19802847468
aF68973.19802847468
aF68973.19802847468
aF68973.19802847468
aI0
aI1
aI0
aI0
aI1
aI1
aI0
aI0
aI1
aI0
aI0
aI0
aI0
aI4
aI1
aI0
aI5
aI0
aI7
aI2
aI0
aI0
aI0
aI1
aI1
aI0
aI0
aI1
aI0
aI32
aI21
aI9
aI0
aI0
aI1
aI0
aI0
aI0
aI0
aI1
aI0
aI0
aI0
aI4
aI0
aI51
aI127
aI2
aI0
aI1
aI0
aI0
aI1
aI12
aI4
aI2
aI1
aI5
aI6
aI1
aI0
aI3
aI3
aI1
aI0
aI1
aI2
aI0
aI0
aI3
aI1
aI1
aI0
aI0
aI0
aI0
aI0
aI0
aI0
aI0
aI0
aI31
aI11
aI2
aI0
aI0
aI0
aI0
aI2
aI0
aI0
aI0
aI0
aI0
aI0
aI0
aI1
aI3
aI11
aI6
aI1
aI0
aI0
aI0
aI0
aI0
aI0
aI1
aI0
aI0
aI0
aI1
aI0
aI0
aI0
aI0
aI0
aI0
aI0
aI0
aI0
aI0
aI0
aI0
aI0
aI0
aI0
aI0
aI0
aI0
aI0
aI0
aI0
aI0
aI0
aI0
aI0
aI0
aI0
aI0
aI0
aI0
aI0
aI0
aI0
aI0
aI0
aI0
aI0
aI0
aI0
aI0
aI0
aI0
aI0
aI0
aI0
aI0
aI0
aI0
aI0
aI0
aI0
aI0
aI0
aI0
aI0
aI72
aI0
aI0
aI0
aI6
aI0
aI0
aI0
aI0
aI0
aI0
aI0
aI0
aI0
aI0
aI0
aI0
aI0
aI0
aI0
aI0
aI0
aI0
aI0
aI0
aI0
aI0
aI0
aI0
aI0
aI0
aI0
aI0
aI0
aI0
aI0
aI0
aI0
aI0
aI0
aI0
aI0
aI0
aI0
aI0
aI79
aI0
aI0
aI37
aI44
aI0
aI0
aI0
aI0
aI0
aI0
aI0
aI0
aI0
aI0
aI0
aI48
aI0
aI0
aI0
aI106
aI0
aI0
aI0
aI0
aI0
aI0
aI0
aI0
aI0
aI0
aI0
aI0
aI0
aI0
aI0
aI0
aI0
aI0
aI0
aI0
aI0
aI0
aI0
aI0
aI0
aI0
aI0
aI0
aI0
aI0
aI0
aI0
aI0
aI0
aI0
aI0
aI0
aI0
aI0
aI1
aI38
aI0
aI0
aI0
aI0
aI0
aI0
aI0
aI0
aI0
aI0
aI0
aI0
aI0
aI0
aI1
aI0
aI0
aI0
aI1
aI0
aI0
aI0
aI1
aI0
aI0
aI0
aI34
aI2
aI0
aI0
aI0
aI0
aI0
aI0
aI0
aI0
aI0
aI0
aI0
aI0
aI0
aI0
aI0
aI0
aI0
aI0
aa(lp77
F41.403869384104475
aF343.7580405551853
aF13.35250052652062
aF1649.7599094761893
aF17429.433491465472
aF1032.3160113595773
aF99492.8353800728
aF99492.8353800728
aF99492.8353800728
aF99492.8353800728
aF99492.8353800728
aF99492.8353800728
aF99492.8353800728
aF99492.8353800728
aF99492.8353800728
aF99492.8353800728
aI0
aI0
aI0
aI0
aI1
aI1
aI0
aI0
aI0
aI4
aI2
aI2
aI1
aI4
aI8
aI1
aI0
aI0
aI0
aI0
aI2
aI0
aI0
aI0
aI5
aI0
aI0
aI1
aI11
aI39
aI7
aI4
aI0
aI2
aI5
aI1
aI1
aI0
aI0
aI2
aI3
aI0
aI0
aI6
aI3
aI126
aI183
aI18
aI0
aI0
aI1
aI0
aI0
aI0
aI1
aI2
aI1
aI2
aI1
aI3
aI4
aI7
aI7
aI0
aI1
aI1
aI1
aI0
aI0
aI0
aI0
aI0
aI1
aI0
aI1
aI0
aI0
aI1
aI0
aI0
aI8
aI30
aI21
aI4
aI1
aI0
aI0
aI2
aI2
aI0
aI0
aI0
aI1
aI0
aI0
aI0
aI1
aI5
aI17
aI7
aI1
aI0
aI0
aI4
aI0
aI0
aI0
aI0
aI0
aI0
aI0
aI0
aI0
aI0
aI0
aI1
aI0
aI0
aI1
aI0
aI0
aI0
aI0
aI0
aI0
aI0
aI0
aI0
aI0
aI0
aI0
aI0
aI0
aI0
aI0
aI0
aI0
aI0
aI0
aI0
aI0
aI0
aI0
aI0
aI0
aI0
aI0
aI0
aI0
aI0
aI0
aI0
aI0
aI0
aI0
aI0
aI0
aI0
aI0
aI0
aI0
aI0
aI0
aI0
aI0
aI0
aI0
aI97
aI0
aI0
aI0
aI15
aI0
aI0
aI0
aI0
aI0
aI0
aI0
aI0
aI0
aI0
aI0
aI0
aI0
aI0
aI0
aI0
aI0
aI0
aI0
aI0
aI0
aI0
aI0
aI0
aI0
aI0
aI0
aI0
aI0
aI0
aI0
aI0
aI0
aI0
aI0
aI0
aI0
aI0
aI0
aI0
aI99
aI0
aI0
aI57
aI59
aI0
aI0
aI7
aI0
aI0
aI0
aI0
aI0
aI0
aI0
aI0
aI94
aI0
aI0
aI0
aI156
aI0
aI0
aI0
aI0
aI0
aI0
aI0
aI0
aI0
aI0
aI0
aI0
aI0
aI0
aI0
aI0
aI0
aI0
aI0
aI0
aI0
aI0
aI0
aI0
aI0
aI0
aI0
aI0
aI0
aI0
aI0
aI0
aI0
aI0
aI0
aI0
aI0
aI0
aI0
aI0
aI48
aI8
aI0
aI0
aI0
aI0
aI0
aI0
aI0
aI0
aI0
aI0
aI0
aI0
aI0
aI0
aI0
aI0
aI2
aI0
aI0
aI0
aI1
aI0
aI0
aI0
aI2
aI27
aI19
aI4
aI1
aI0
aI0
aI0
aI0
aI0
aI0
aI0
aI0
aI0
aI0
aI0
aI0
aI0
aI0
aI0
aI0
aa(lp78
F24.90995782149919
aF354.7079268201882
aF5.138273845441594
aF1242.7218940098048
aF14502.28309175052
aF1073.8248176744823
aF178581.82089005373
aF178581.82089005373
aF178581.82089005373
aF178581.82089005373
aF178581.82089005373
aF178581.82089005373
aF178581.82089005373
aF178581.82089005373
aF178581.82089005373
aF178581.82089005373
aI0
aI0
aI0
aI0
aI0
aI0
aI0
aI0
aI0
aI0
aI0
aI0
aI0
aI0
aI0
aI0
aI0
aI0
aI0
aI0
aI0
aI0
aI0
aI0
aI0
aI0
aI0
aI0
aI7
aI10
aI82
aI7
aI0
aI0
aI0
aI0
aI1
aI0
aI0
aI0
aI0
aI0
aI0
aI2
aI6
aI192
aI69
aI4
aI0
aI0
aI0
aI0
aI1
aI1
aI2
aI0
aI5
aI11
aI6
aI0
aI7
aI50
aI4
aI0
aI0
aI2
aI11
aI2
aI0
aI0
aI0
aI0
aI0
aI0
aI0
aI0
aI0
aI0
aI0
aI0
aI3
aI14
aI52
aI0
aI1
aI0
aI0
aI0
aI1
aI0
aI0
aI0
aI0
aI0
aI0
aI0
aI2
aI4
aI10
aI1
aI0
aI0
aI0
aI0
aI0
aI0
aI0
aI0
aI0
aI0
aI0
aI0
aI0
aI0
aI0
aI0
aI0
aI0
aI0
aI0
aI0
aI0
aI0
aI0
aI0
aI0
aI0
aI0
aI0
aI0
aI0
aI0
aI0
aI0
aI0
aI0
aI0
aI0
aI0
aI0
aI0
aI0
aI0
aI0
aI0
aI0
aI0
aI0
aI0
aI0
aI0
aI0
aI0
aI0
aI0
aI0
aI0
aI0
aI0
aI0
aI0
aI0
aI0
aI0
aI0
aI0
aI0
aI103
aI0
aI0
aI0
aI0
aI0
aI0
aI0
aI0
aI0
aI0
aI0
aI0
aI0
aI0
aI0
aI0
aI0
aI0
aI0
aI0
aI0
aI0
aI0
aI0
aI0
aI0
aI0
aI0
aI0
aI0
aI0
aI0
aI0
aI0
aI0
aI0
aI0
aI0
aI0
aI0
aI0
aI0
aI0
aI0
aI107
aI0
aI0
aI52
aI71
aI0
aI0
aI4
aI0
aI0
aI0
aI0
aI0
aI0
aI0
aI0
aI109
aI0
aI0
aI0
aI124
aI0
aI0
aI0
aI0
aI0
aI0
aI0
aI0
aI0
aI0
aI0
aI0
aI0
aI0
aI0
aI0
aI0
aI0
aI0
aI0
aI0
aI0
aI0
aI0
aI0
aI0
aI0
aI0
aI0
aI0
aI0
aI0
aI0
aI0
aI0
aI0
aI0
aI0
aI0
aI0
aI41
aI8
aI0
aI0
aI0
aI0
aI0
aI0
aI0
aI0
aI0
aI0
aI0
aI0
aI0
aI0
aI0
aI6
aI1
aI0
aI0
aI0
aI0
aI0
aI0
aI0
aI0
aI0
aI21
aI24
aI0
aI0
aI0
aI0
aI0
aI0
aI0
aI0
aI0
aI0
aI0
aI0
aI1
aI0
aI0
aI0
aI1
aa(lp79
F44.16487023679749
aF336.1149423120723
aF14.357234408718044
aF1506.9598283035448
aF11121.693489332358
aF1109.056696199419
aF209817.77016055913
aF209817.77016055913
aF209817.77016055913
aF209817.77016055913
aF209817.77016055913
aF209817.77016055913
aF209817.77016055913
aF209817.77016055913
aF209817.77016055913
aF209817.77016055913
aI0
aI3
aI6
aI4
aI0
aI1
aI1
aI1
aI0
aI4
aI0
aI0
aI0
aI0
aI0
aI0
aI0
aI2
aI10
aI8
aI0
aI0
aI0
aI5
aI0
aI0
aI0
aI0
aI2
aI3
aI71
aI3
aI0
aI0
aI1
aI4
aI0
aI0
aI0
aI6
aI0
aI0
aI0
aI1
aI0
aI174
aI117
aI0
aI0
aI0
aI0
aI2
aI0
aI0
aI0
aI5
aI1
aI1
aI2
aI6
aI0
aI2
aI12
aI0
aI0
aI2
aI1
aI0
aI0
aI0
aI0
aI0
aI0
aI0
aI0
aI0
aI0
aI0
aI0
aI0
aI3
aI29
aI35
aI0
aI3
aI0
aI0
aI0
aI3
aI0
aI0
aI0
aI0
aI0
aI0
aI0
aI0
aI3
aI6
aI0
aI0
aI0
aI0
aI0
aI3
aI0
aI0
aI0
aI4
aI1
aI0
aI0
aI0
aI0
aI2
aI0
aI0
aI0
aI0
aI0
aI0
aI0
aI0
aI0
aI0
aI4
aI0
aI0
aI0
aI0
aI0
aI0
aI0
aI0
aI0
aI0
aI0
aI0
aI0
aI0
aI0
aI0
aI0
aI0
aI0
aI0
aI0
aI0
aI0
aI0
aI0
aI0
aI0
aI0
aI0
aI0
aI0
aI0
aI0
aI0
aI0
aI0
aI0
aI0
aI0
aI0
aI0
aI99
aI0
aI0
aI0
aI0
aI0
aI0
aI0
aI0
aI0
aI0
aI0
aI0
aI0
aI0
aI0
aI0
aI0
aI0
aI0
aI0
aI0
aI0
aI0
aI0
aI0
aI0
aI0
aI0
aI0
aI0
aI0
aI0
aI0
aI0
aI0
aI0
aI0
aI0
aI0
aI0
aI0
aI0
aI0
aI0
aI106
aI0
aI0
aI51
aI49
aI0
aI0
aI12
aI0
aI0
aI0
aI0
aI0
aI0
aI0
aI0
aI108
aI0
aI0
aI0
aI132
aI0
aI0
aI0
aI0
aI0
aI0
aI0
aI0
aI0
aI0
aI0
aI0
aI0
aI0
aI0
aI0
aI0
aI0
aI0
aI0
aI0
aI0
aI0
aI0
aI0
aI0
aI0
aI0
aI0
aI0
aI0
aI0
aI0
aI0
aI0
aI0
aI0
aI0
aI0
aI49
aI0
aI0
aI0
aI2
aI0
aI0
aI0
aI0
aI0
aI0
aI0
aI0
aI0
aI0
aI0
aI0
aI0
aI0
aI0
aI5
aI0
aI0
aI0
aI12
aI0
aI0
aI0
aI31
aI0
aI0
aI0
aI0
aI0
aI0
aI0
aI0
aI0
aI0
aI0
aI0
aI0
aI0
aI0
aI0
aI0
aI0
aI0
aa(lp80
F18.38922247790024
aF350.56201653440854
aF24.047545615903847
aF1206.4422360482238
aF16711.9547697748
aF951.2299578898402
aF176800.2915670035
aF176800.2915670035
aF176800.2915670035
aF176800.2915670035
aF176800.2915670035
aF176800.2915670035
aF176800.2915670035
aF176800.2915670035
aF176800.2915670035
aF176800.2915670035
aI0
aI0
aI0
aI0
aI0
aI0
aI0
aI0
aI0
aI0
aI0
aI2
aI0
aI0
aI2
aI0
aI1
aI0
aI1
aI2
aI0
aI0
aI0
aI1
aI1
aI0
aI0
aI1
aI2
aI5
aI56
aI11
aI0
aI2
aI0
aI1
aI0
aI0
aI0
aI2
aI0
aI0
aI0
aI2
aI1
aI168
aI161
aI7
aI0
aI2
aI2
aI0
aI0
aI1
aI5
aI1
aI1
aI6
aI3
aI1
aI0
aI19
aI10
aI0
aI0
aI5
aI1
aI0
aI0
aI0
aI0
aI0
aI1
aI2
aI0
aI0
aI1
aI1
aI0
aI0
aI1
aI40
aI28
aI0
aI4
aI0
aI0
aI0
aI0
aI0
aI0
aI0
aI2
aI1
aI0
aI0
aI0
aI5
aI9
aI2
aI0
aI0
aI0
aI0
aI1
aI0
aI0
aI0
aI0
aI1
aI0
aI0
aI0
aI0
aI0
aI0
aI0
aI0
aI0
aI0
aI0
aI0
aI0
aI1
aI0
aI0
aI0
aI0
aI0
aI0
aI0
aI0
aI0
aI0
aI0
aI0
aI0
aI0
aI0
aI0
aI0
aI0
aI0
aI0
aI0
aI0
aI0
aI0
aI0
aI0
aI0
aI0
aI0
aI0
aI0
aI0
aI0
aI0
aI0
aI0
aI0
aI0
aI0
aI0
aI0
aI0
aI0
aI106
aI0
aI0
aI0
aI0
aI0
aI0
aI0
aI0
aI0
aI0
aI0
aI0
aI0
aI0
aI0
aI0
aI0
aI0
aI0
aI0
aI0
aI0
aI0
aI0
aI0
aI0
aI0
aI0
aI0
aI0
aI0
aI0
aI0
aI0
aI0
aI0
aI0
aI0
aI0
aI0
aI0
aI0
aI0
aI0
aI106
aI0
aI0
aI52
aI105
aI0
aI0
aI5
aI0
aI0
aI0
aI0
aI0
aI0
aI0
aI0
aI107
aI0
aI0
aI0
aI105
aI0
aI0
aI0
aI0
aI0
aI0
aI0
aI0
aI0
aI0
aI0
aI0
aI0
aI0
aI0
aI0
aI0
aI0
aI0
aI0
aI0
aI0
aI0
aI0
aI0
aI0
aI0
aI0
aI0
aI0
aI0
aI0
aI0
aI0
aI0
aI0
aI0
aI0
aI0
aI0
aI0
aI0
aI0
aI52
aI0
aI0
aI0
aI0
aI0
aI0
aI0
aI0
aI0
aI0
aI0
aI0
aI0
aI0
aI0
aI4
aI0
aI0
aI0
aI50
aI0
aI0
aI0
aI0
aI0
aI0
aI0
aI0
aI0
aI0
aI0
aI0
aI0
aI0
aI0
aI0
aI0
aI0
aI0
aI0
aI0
aI0
aI0
aa(lp81
F43.24309437650854
aF397.0921236837646
aF25.58793598693074
aF1514.1102717272197
aF18272.383748288485
aF239.24651496786237
aF63125.75295204518
aF63125.75295204518
aF63125.75295204518
aF63125.75295204518
aF63125.75295204518
aF63125.75295204518
aF63125.75295204518
aF63125.75295204518
aF63125.75295204518
aF63125.75295204518
aI0
aI0
aI0
aI0
aI0
aI0
aI0
aI0
aI0
aI0
aI0
aI0
aI0
aI5
aI4
aI2
aI1
aI0
aI0
aI0
aI0
aI0
aI0
aI0
aI0
aI0
aI0
aI0
aI1
aI7
aI123
aI16
aI1
aI2
aI1
aI0
aI0
aI0
aI0
aI3
aI1
aI0
aI0
aI3
aI0
aI163
aI90
aI3
aI0
aI0
aI0
aI0
aI0
aI0
aI0
aI0
aI0
aI0
aI0
aI0
aI0
aI0
aI0
aI0
aI0
aI0
aI0
aI0
aI0
aI0
aI0
aI0
aI0
aI0
aI0
aI0
aI0
aI0
aI0
aI0
aI2
aI23
aI33
aI1
aI10
aI0
aI0
aI0
aI1
aI0
aI0
aI0
aI0
aI0
aI0
aI0
aI4
aI7
aI5
aI4
aI2
aI0
aI0
aI8
aI0
aI0
aI0
aI4
aI0
aI0
aI0
aI0
aI0
aI0
aI2
aI0
aI0
aI0
aI0
aI1
aI0
aI0
aI0
aI0
aI0
aI0
aI0
aI0
aI0
aI0
aI0
aI0
aI0
aI0
aI0
aI0
aI0
aI0
aI0
aI0
aI0
aI0
aI0
aI0
aI0
aI0
aI0
aI0
aI0
aI0
aI0
aI0
aI0
aI0
aI0
aI0
aI0
aI0
aI0
aI0
aI0
aI0
aI0
aI0
aI0
aI0
aI0
aI70
aI0
aI0
aI0
aI37
aI0
aI0
aI0
aI0
aI0
aI0
aI0
aI0
aI0
aI0
aI0
aI0
aI0
aI0
aI0
aI0
aI0
aI0
aI0
aI0
aI0
aI0
aI0
aI0
aI0
aI0
aI0
aI0
aI0
aI0
aI0
aI0
aI0
aI0
aI0
aI0
aI0
aI0
aI0
aI0
aI152
aI0
aI0
aI0
aI58
aI0
aI0
aI0
aI0
aI0
aI0
aI0
aI0
aI0
aI0
aI0
aI74
aI0
aI0
aI0
aI142
aI0
aI0
aI0
aI0
aI0
aI0
aI0
aI0
aI0
aI0
aI0
aI0
aI0
aI0
aI0
aI0
aI0
aI0
aI0
aI0
aI0
aI0
aI0
aI0
aI0
aI0
aI0
aI0
aI0
aI0
aI0
aI0
aI0
aI0
aI0
aI0
aI0
aI0
aI0
aI50
aI0
aI0
aI0
aI0
aI0
aI0
aI0
aI0
aI0
aI0
aI0
aI0
aI0
aI0
aI0
aI5
aI0
aI0
aI0
aI2
aI0
aI0
aI0
aI19
aI0
aI0
aI0
aI20
aI10
aI0
aI0
aI0
aI0
aI0
aI0
aI0
aI0
aI0
aI0
aI1
aI0
aI0
aI0
aI0
aI0
aI0
aI0
aa(lp82
F8.420975839130321
aF369.9408952656339
aF31.720041117518043
aF1183.4163816068651
aF16157.317654692388
aF1027.4911169132636
aF175131.13839102208
aF175131.13839102208
aF175131.13839102208
aF175131.13839102208
aF175131.13839102208
aF175131.13839102208
aF175131.13839102208
aF175131.13839102208
aF175131.13839102208
aF175131.13839102208
aI0
aI0
aI0
aI0
aI0
aI0
aI0
aI0
aI0
aI0
aI0
aI0
aI0
aI3
aI0
aI0
aI0
aI0
aI0
aI0
aI0
aI0
aI0
aI0
aI0
aI0
aI0
aI0
aI3
aI53
aI132
aI25
aI0
aI0
aI0
aI0
aI0
aI0
aI0
aI0
aI0
aI0
aI0
aI0
aI0
aI171
aI101
aI4
aI0
aI0
aI0
aI0
aI0
aI0
aI0
aI0
aI0
aI0
aI0
aI1
aI0
aI0
aI0
aI0
aI0
aI0
aI0
aI0
aI0
aI0
aI0
aI0
aI0
aI0
aI0
aI0
aI0
aI0
aI0
aI0
aI6
aI19
aI37
aI0
aI2
aI0
aI0
aI0
aI1
aI0
aI0
aI0
aI0
aI0
aI0
aI0
aI3
aI18
aI20
aI1
aI0
aI0
aI0
aI0
aI1
aI0
aI0
aI0
aI0
aI0
aI0
aI0
aI0
aI1
aI0
aI0
aI0
aI0
aI0
aI0
aI0
aI0
aI0
aI0
aI0
aI0
aI0
aI0
aI0
aI0
aI0
aI0
aI0
aI0
aI0
aI0
aI0
aI0
aI0
aI0
aI0
aI0
aI0
aI0
aI0
aI0
aI0
aI0
aI0
aI0
aI0
aI0
aI0
aI0
aI0
aI0
aI0
aI0
aI0
aI0
aI0
aI0
aI0
aI2
aI0
aI0
aI0
aI107
aI0
aI0
aI0
aI0
aI0
aI0
aI0
aI0
aI0
aI0
aI0
aI0
aI0
aI0
aI0
aI0
aI0
aI0
aI0
aI0
aI0
aI0
aI0
aI0
aI0
aI0
aI0
aI0
aI0
aI0
aI0
aI0
aI0
aI0
aI0
aI0
aI0
aI0
aI0
aI0
aI0
aI0
aI0
aI0
aI112
aI0
aI0
aI55
aI106
aI0
aI0
aI2
aI0
aI0
aI0
aI0
aI0
aI0
aI0
aI0
aI111
aI0
aI0
aI0
aI107
aI0
aI0
aI0
aI0
aI0
aI0
aI0
aI0
aI0
aI0
aI0
aI0
aI0
aI0
aI0
aI0
aI0
aI0
aI0
aI0
aI0
aI0
aI0
aI0
aI0
aI0
aI0
aI0
aI0
aI0
aI0
aI0
aI0
aI0
aI0
aI0
aI0
aI0
aI0
aI13
aI0
aI0
aI0
aI34
aI0
aI0
aI0
aI0
aI0
aI0
aI0
aI0
aI0
aI0
aI0
aI0
aI0
aI0
aI0
aI11
aI0
aI0
aI0
aI42
aI0
aI0
aI0
aI9
aI0
aI0
aI0
aI0
aI0
aI0
aI0
aI0
aI0
aI0
aI0
aI0
aI0
aI0
aI0
aI0
aI0
aI0
aI0
aa(lp83
F48.67556365649125
aF399.1309975066247
aF20.91706294086612
aF1520.6924140765946
aF11048.74904927958
aF1075.5558840534381
aF241319.34094760244
aF241319.34094760244
aF241319.34094760244
aF241319.34094760244
aF241319.34094760244
aF241319.34094760244
aF241319.34094760244
aF241319.34094760244
aF241319.34094760244
aF241319.34094760244
aI0
aI0
aI0
aI0
aI0
aI0
aI0
aI0
aI0
aI0
aI0
aI0
aI0
aI0
aI0
aI0
aI0
aI0
aI0
aI0
aI0
aI0
aI0
aI0
aI0
aI0
aI0
aI0
aI1
aI1
aI50
aI2
aI0
aI0
aI0
aI0
aI0
aI0
aI0
aI3
aI0
aI0
aI0
aI1
aI2
aI161
aI112
aI0
aI0
aI13
aI2
aI0
aI1
aI13
aI6
aI3
aI1
aI13
aI9
aI10
aI0
aI10
aI5
aI0
aI0
aI1
aI3
aI0
aI2
aI2
aI2
aI1
aI2
aI2
aI2
aI2
aI0
aI0
aI0
aI0
aI1
aI27
aI30
aI0
aI1
aI0
aI0
aI0
aI2
aI0
aI0
aI0
aI0
aI0
aI0
aI0
aI0
aI6
aI3
aI0
aI0
aI0
aI0
aI0
aI0
aI0
aI0
aI0
aI0
aI0
aI0
aI0
aI0
aI0
aI0
aI0
aI0
aI0
aI0
aI0
aI0
aI0
aI0
aI0
aI0
aI0
aI0
aI0
aI0
aI0
aI0
aI0
aI0
aI0
aI0
aI0
aI0
aI0
aI0
aI0
aI0
aI0
aI0
aI0
aI0
aI0
aI0
aI0
aI0
aI0
aI0
aI0
aI0
aI0
aI0
aI0
aI0
aI0
aI0
aI0
aI0
aI0
aI0
aI0
aI0
aI0
aI0
aI89
aI0
aI0
aI0
aI0
aI0
aI0
aI0
aI0
aI0
aI0
aI0
aI0
aI0
aI0
aI0
aI0
aI0
aI0
aI0
aI0
aI0
aI0
aI0
aI0
aI0
aI0
aI0
aI0
aI0
aI0
aI0
aI0
aI0
aI0
aI0
aI0
aI0
aI0
aI0
aI0
aI0
aI0
aI0
aI0
aI97
aI0
aI0
aI45
aI42
aI0
aI0
aI17
aI0
aI0
aI0
aI1
aI0
aI0
aI0
aI0
aI99
aI0
aI0
aI0
aI118
aI0
aI0
aI0
aI0
aI0
aI0
aI0
aI0
aI0
aI0
aI0
aI0
aI0
aI0
aI0
aI0
aI0
aI0
aI0
aI0
aI0
aI0
aI0
aI0
aI0
aI0
aI0
aI0
aI0
aI0
aI0
aI0
aI0
aI0
aI0
aI0
aI0
aI0
aI0
aI0
aI45
aI0
aI0
aI0
aI0
aI0
aI0
aI0
aI0
aI0
aI0
aI0
aI0
aI0
aI0
aI0
aI4
aI0
aI0
aI0
aI0
aI0
aI0
aI0
aI0
aI0
aI0
aI6
aI30
aI0
aI0
aI0
aI1
aI0
aI0
aI0
aI1
aI0
aI0
aI0
aI0
aI0
aI0
aI0
aI2
aI0
aI0
aa(lp84
F18.973342624643994
aF394.4189328771598
aF23.449629834500744
aF1280.9235394137022
aF15147.01895939256
aF1010.4745049830273
aF205903.2419351531
aF205903.2419351531
aF205903.2419351531
aF205903.2419351531
aF205903.2419351531
aF205903.2419351531
aF205903.2419351531
aF205903.2419351531
aF205903.2419351531
aF205903.2419351531
aI0
aI1
aI0
aI0
aI0
aI1
aI0
aI0
aI0
aI1
aI0
aI0
aI0
aI0
aI0
aI0
aI0
aI6
aI32
aI2
aI0
aI0
aI0
aI0
aI0
aI0
aI0
aI0
aI0
aI0
aI77
aI9
aI0
aI0
aI24
aI12
aI0
aI0
aI0
aI1
aI0
aI0
aI0
aI0
aI0
aI174
aI76
aI1
aI0
aI0
aI0
aI0
aI0
aI0
aI0
aI0
aI0
aI0
aI0
aI1
aI0
aI0
aI2
aI0
aI0
aI0
aI0
aI0
aI0
aI0
aI0
aI0
aI0
aI0
aI0
aI0
aI0
aI0
aI1
aI0
aI5
aI21
aI33
aI0
aI1
aI0
aI0
aI0
aI0
aI0
aI0
aI0
aI1
aI9
aI0
aI0
aI0
aI9
aI3
aI0
aI0
aI0
aI0
aI0
aI0
aI0
aI0
aI0
aI0
aI6
aI2
aI0
aI0
aI0
aI0
aI0
aI0
aI0
aI0
aI0
aI0
aI0
aI0
aI0
aI0
aI0
aI0
aI0
aI0
aI0
aI0
aI0
aI0
aI0
aI0
aI0
aI0
aI0
aI0
aI0
aI0
aI0
aI0
aI0
aI0
aI0
aI0
aI0
aI0
aI0
aI0
aI0
aI0
aI0
aI0
aI0
aI0
aI0
aI0
aI0
aI0
aI0
aI0
aI0
aI0
aI0
aI0
aI91
aI0
aI0
aI0
aI0
aI0
aI0
aI0
aI0
aI0
aI0
aI0
aI0
aI0
aI0
aI0
aI0
aI0
aI0
aI0
aI0
aI0
aI0
aI0
aI0
aI1
aI1
aI1
aI1
aI0
aI0
aI0
aI0
aI0
aI0
aI0
aI0
aI0
aI0
aI0
aI0
aI0
aI0
aI0
aI2
aI106
aI0
aI0
aI31
aI72
aI0
aI0
aI0
aI0
aI0
aI0
aI0
aI0
aI0
aI0
aI0
aI99
aI0
aI0
aI0
aI106
aI0
aI0
aI0
aI0
aI0
aI0
aI0
aI0
aI0
aI0
aI0
aI0
aI0
aI0
aI0
aI0
aI0
aI0
aI0
aI0
aI0
aI0
aI0
aI0
aI0
aI0
aI0
aI0
aI0
aI0
aI0
aI0
aI0
aI0
aI0
aI0
aI0
aI0
aI0
aI0
aI16
aI30
aI0
aI0
aI0
aI0
aI0
aI0
aI0
aI0
aI0
aI0
aI0
aI0
aI0
aI0
aI0
aI2
aI2
aI0
aI0
aI0
aI1
aI0
aI0
aI0
aI0
aI0
aI24
aI15
aI1
aI0
aI0
aI0
aI0
aI0
aI0
aI0
aI0
aI0
aI0
aI0
aI0
aI0
aI0
aI0
aI0
aa(lp85
F18.099934959517743
aF440.40527603698354
aF29.421013497137714
aF1111.928389652212
aF16960.118492205413
aF804.4434790768365
aF170154.5219060173
aF170154.5219060173
aF170154.5219060173
aF170154.5219060173
aF170154.5219060173
aF170154.5219060173
aF170154.5219060173
aF170154.5219060173
aF170154.5219060173
aF170154.5219060173
aI0
aI0
aI0
aI0
aI0
aI0
aI0
aI0
aI0
aI0
aI0
aI0
aI0
aI0
aI0
aI0
aI0
aI0
aI0
aI0
aI0
aI0
aI0
aI0
aI0
aI0
aI0
aI0
aI3
aI4
aI74
aI0
aI0
aI0
aI0
aI0
aI0
aI0
aI0
aI0
aI1
aI0
aI0
aI0
aI3
aI76
aI96
aI6
aI0
aI0
aI0
aI0
aI0
aI0
aI0
aI0
aI10
aI34
aI7
aI0
aI0
aI9
aI15
aI0
aI0
aI4
aI5
aI0
aI0
aI2
aI5
aI4
aI0
aI0
aI0
aI0
aI0
aI0
aI0
aI0
aI2
aI25
aI13
aI0
aI3
aI0
aI0
aI0
aI0
aI0
aI0
aI0
aI0
aI0
aI0
aI0
aI0
aI6
aI6
aI0
aI0
aI0
aI0
aI0
aI0
aI0
aI0
aI0
aI0
aI0
aI0
aI0
aI0
aI0
aI0
aI0
aI0
aI0
aI0
aI0
aI0
aI0
aI0
aI0
aI0
aI0
aI0
aI0
aI0
aI0
aI0
aI0
aI0
aI0
aI0
aI0
aI0
aI0
aI0
aI0
aI0
aI0
aI0
aI0
aI0
aI0
aI0
aI0
aI0
aI0
aI0
aI0
aI0
aI0
aI0
aI0
aI0
aI0
aI0
aI0
aI0
aI0
aI0
aI0
aI0
aI0
aI0
aI75
aI0
aI0
aI0
aI0
aI0
aI0
aI0
aI0
aI0
aI0
aI0
aI0
aI0
aI0
aI0
aI0
aI0
aI0
aI0
aI0
aI0
aI0
aI0
aI0
aI0
aI0
aI0
aI0
aI0
aI0
aI0
aI0
aI0
aI0
aI0
aI0
aI0
aI0
aI0
aI0
aI0
aI0
aI0
aI0
aI73
aI0
aI0
aI36
aI76
aI0
aI0
aI3
aI0
aI0
aI0
aI0
aI0
aI0
aI0
aI0
aI74
aI0
aI0
aI0
aI76
aI0
aI0
aI0
aI0
aI0
aI0
aI0
aI0
aI0
aI0
aI0
aI0
aI0
aI0
aI0
aI0
aI0
aI0
aI0
aI0
aI0
aI0
aI0
aI0
aI0
aI0
aI0
aI0
aI0
aI0
aI0
aI0
aI0
aI0
aI0
aI0
aI0
aI0
aI0
aI0
aI32
aI0
aI0
aI0
aI0
aI0
aI0
aI0
aI0
aI0
aI0
aI0
aI0
aI0
aI0
aI0
aI6
aI0
aI0
aI1
aI0
aI0
aI0
aI0
aI0
aI0
aI0
aI36
aI0
aI0
aI0
aI0
aI0
aI0
aI0
aI0
aI0
aI0
aI0
aI0
aI0
aI0
aI0
aI0
aI0
aI0
aI0
aaa(lp86
I0
aI0
aI0
aI0
aI0
aI1
aI1
aI1
aI1
aI1
aI2
aI2
aI2
aI2
aI2
aI2
aI2
aI2
aI2
aI3
aI3
aI3
aI3
aI3
aI3
aI3
aI3
aI3
aI3
aI3
aI3
aI3
aI3
aI3
aI2
aI2
aI2
aI2
aI2
aI4
aI4
aI4
aI4
aI4
aI4
aI4
aI4
aI4
aI4
aI4
aI4
aI4
aI4
aI4
aI5
aI5
aI5
aI5
aI5
aI5
aI5
aI5
aI5
aI5
aI5
aI5
aI5
aI5
aI3
aI3
aI3
aI3
aI3
aI3
aI3
aI3
aI3
aI3
aI3
aI3
aI3
aI3
aI3
aI3
aa(dp87
S'wobble\n'
p88
I2
sS'clap\n'
p89
I5
sS'raise\n'
p90
I3
sS'left\n'
p91
I0
sS'lower\n'
p92
I4
sS'right\n'
p93
I1
sa.