(lp0
(lp1
(lp2
F-11.743166402850095
aF177.12452282053601
aF-1.9950576893144598
aF-34.150994874131754
aF347.54974008497885
aF-24.78116663815467
aa(lp3
F0.0
aF0.0
aF0.0
aF0.0
aF0.0
aF0.0
aa(lp4
F-5.082661423789326
aF197.70147837123906
aF-1.5678221409229356
aF-26.446224183204983
aF346.10389599828466
aF-34.94756536947057
aa(lp5
F1.8061691690268724
aF151.23879508773518
aF5.742829279786767
aF3.694447681679838
aF358.24945139080876
aF-17.56910780962044
aaa(lp6
I7696394
aI7696394
aI7696394
aI7696394
aa.(lp0
(lp1
(lp2
F-18.115772034087524
aF171.1823670186607
aF17.13962550621136
aF22.352096187993606
aF-410.04936824409026
aF-27.727116693216004
aa(lp3
F-17.758650725298637
aF200.73935492360357
aF12.395371175867348
aF22.54482196368872
aF-384.74125921314834
aF-35.741144899452465
aa(lp4
F-10.900214782068083
aF169.93898106923922
aF19.303734787816992
aF62.88453460618603
aF-458.1408638000037
aF17.812106000008832
aaa(lp5
I431366827530
aI431366827530
aI431366827530
aa.