(lp0
(lp1
(lp2
F45.74160068427038
aF319.6659386447877
aF79.62764391295559
aa(lp3
F19.583949725686484
aF261.5157195822569
aF59.4391523177189
aa(lp4
F-37.62862425933068
aF-316.6549852748808
aF15.1419557857952
aa(lp5
F-20.669944180535634
aF-291.30814414524826
aF-40.34744428292721
aa(lp6
F-245.18626452320976
aF58.21512382107225
aF46.72468276436704
aa(lp7
F-247.42468770491047
aF25.89327026347701
aF42.61508798202799
aa(lp8
F268.10503102004833
aF3.6045005513479307
aF-32.34286721958498
aa(lp9
F-19.810446590413505
aF29.802706604220013
aF31.990789429825625
aa(lp10
F4.247908638290859
aF-17.002008372594535
aF-6.153210500997379
aaa(lp11
F1.0
aF1.0
aF2.0
aF2.0
aF3.0
aF3.0
aF4.0
aF5.0
aF5.0
aa.